GAS LISTING /tmp/ccpiGvb5.s 			page 1


   1              		.file	"riscv.cpp"
   2              		.option pic
   3              		.option norelax
   4              		.text
   5              	.Ltext0:
   6              		.align	2
   7              		.globl	_ZN5Riscv10popSppSpieEv
   9              	_ZN5Riscv10popSppSpieEv:
  10              	.LFB38:
  11              		.file 1 "src/riscv.cpp"
   1:src/riscv.cpp **** #include "../h/riscv.hpp"
   2:src/riscv.cpp **** #include "../lib/console.h"
   3:src/riscv.cpp **** #include "../h/tcb.hpp"
   4:src/riscv.cpp **** #include "../lib/mem.h"
   5:src/riscv.cpp **** #include "../h/print.hpp"
   6:src/riscv.cpp **** #include "../h/Semafor.hpp"
   7:src/riscv.cpp **** 
   8:src/riscv.cpp **** void Riscv::popSppSpie() {
  12              		.loc 1 8 26
  13              		.cfi_startproc
  14 0000 130101FF 		addi	sp,sp,-16
  15              		.cfi_def_cfa_offset 16
  16 0004 23348100 		sd	s0,8(sp)
  17              		.cfi_offset 8, -8
  18 0008 13040101 		addi	s0,sp,16
  19              		.cfi_def_cfa 8, 0
   9:src/riscv.cpp ****     mc_sstatus(SSTATUS_SPP);
  20              		.loc 1 9 5
  21              	.LVL0:
  22              	.LBB39:
  23              	.LBB40:
  24              		.file 2 "src/../h/riscv.hpp"
   1:src/../h/riscv.hpp **** #ifndef OS1_PROJEKAT_RISCV_HPP
   2:src/../h/riscv.hpp **** #define OS1_PROJEKAT_RISCV_HPP
   3:src/../h/riscv.hpp **** 
   4:src/../h/riscv.hpp **** #include "../lib/hw.h"
   5:src/../h/riscv.hpp **** class Riscv{
   6:src/../h/riscv.hpp **** public:
   7:src/../h/riscv.hpp **** 
   8:src/../h/riscv.hpp ****     static void popSppSpie(); //pop-ovanje sstatus.spp i sstatus.spie bitova
   9:src/../h/riscv.hpp ****                             //ne sme da bude inline f-ja
  10:src/../h/riscv.hpp **** 
  11:src/../h/riscv.hpp ****     static void pushRegisters();
  12:src/../h/riscv.hpp ****     static void popRegisters();
  13:src/../h/riscv.hpp **** 
  14:src/../h/riscv.hpp ****     static uint64 r_scause(); //read register scause
  15:src/../h/riscv.hpp ****     static void w_scause(uint64 scause); //write register scouse
  16:src/../h/riscv.hpp **** 
  17:src/../h/riscv.hpp ****     static uint64 r_sepc(); //read register spec
  18:src/../h/riscv.hpp ****     static void  w_sepc(uint64 ceps); //write register sepc
  19:src/../h/riscv.hpp **** 
  20:src/../h/riscv.hpp ****     static uint64 r_stvec(); //read register stvec
  21:src/../h/riscv.hpp ****     static void w_stvec(uint64 stvec); //write register stvec
  22:src/../h/riscv.hpp **** 
  23:src/../h/riscv.hpp ****     static uint64 r_stval(); //read register stval
  24:src/../h/riscv.hpp ****     static void w_stval(uint64 stval); //write register stval
  25:src/../h/riscv.hpp **** 
GAS LISTING /tmp/ccpiGvb5.s 			page 2


  26:src/../h/riscv.hpp ****     enum BitMaskSip{
  27:src/../h/riscv.hpp ****         SIP_SSIP = (1 <<1 ),
  28:src/../h/riscv.hpp ****         SIP_STIP = (1 << 5),
  29:src/../h/riscv.hpp ****         SIP_SEIP = (1 << 9),
  30:src/../h/riscv.hpp ****     };
  31:src/../h/riscv.hpp **** 
  32:src/../h/riscv.hpp ****     static void ms_sip(uint64 mask); //mask set register sip
  33:src/../h/riscv.hpp **** 
  34:src/../h/riscv.hpp ****     static void mc_sip(uint64 mask); //mask clear register sip
  35:src/../h/riscv.hpp **** 
  36:src/../h/riscv.hpp ****     static uint64 r_sip(); //read register sip
  37:src/../h/riscv.hpp **** 
  38:src/../h/riscv.hpp ****     static void w_sip(uint64 sip); //write regiser sip
  39:src/../h/riscv.hpp **** 
  40:src/../h/riscv.hpp ****     enum BitMaskSstatus{
  41:src/../h/riscv.hpp ****         SSTATUS_SIE= (1 <<1 ),
  42:src/../h/riscv.hpp ****         SSTATUS_STIE = (1 << 5),
  43:src/../h/riscv.hpp ****         SSTATUS_SPP = (1 << 9),
  44:src/../h/riscv.hpp ****     };
  45:src/../h/riscv.hpp **** 
  46:src/../h/riscv.hpp ****     static void ms_sstatus(uint64 mask); //mask set register sstatus
  47:src/../h/riscv.hpp **** 
  48:src/../h/riscv.hpp ****     static void mc_sstatus(uint64 mask); //mask clear register sstaus
  49:src/../h/riscv.hpp **** 
  50:src/../h/riscv.hpp ****     static uint64 r_sstatus(); //read register sstatus
  51:src/../h/riscv.hpp **** 
  52:src/../h/riscv.hpp ****     static void w_sstatus(uint64 sstatus); //write regiser sstatus
  53:src/../h/riscv.hpp **** 
  54:src/../h/riscv.hpp ****     static void supervisorTrap(); //supervisor trap
  55:src/../h/riscv.hpp ****                                 //sta sam procesor zove kada dodje do zahteva za prekidom ili izuze
  56:src/../h/riscv.hpp **** 
  57:src/../h/riscv.hpp **** private:
  58:src/../h/riscv.hpp **** 
  59:src/../h/riscv.hpp ****     static void handleSupervisorTrap(); //supervisor trap handler
  60:src/../h/riscv.hpp **** 
  61:src/../h/riscv.hpp **** };
  62:src/../h/riscv.hpp **** 
  63:src/../h/riscv.hpp **** inline uint64 Riscv::r_scause() {
  64:src/../h/riscv.hpp ****     uint64 volatile scause;
  65:src/../h/riscv.hpp ****     __asm__ volatile ("csrr %[scause], scause" : [scause] "=r"(scause));
  66:src/../h/riscv.hpp ****     return scause;
  67:src/../h/riscv.hpp **** }
  68:src/../h/riscv.hpp **** 
  69:src/../h/riscv.hpp **** inline void Riscv::w_scause(uint64 scause) {
  70:src/../h/riscv.hpp ****     __asm__ volatile ("csrw scause, %[scause]" : : [scause] "r"(scause));
  71:src/../h/riscv.hpp **** }
  72:src/../h/riscv.hpp **** 
  73:src/../h/riscv.hpp **** inline uint64 Riscv::r_sepc() {
  74:src/../h/riscv.hpp ****     uint64 volatile sepc;
  75:src/../h/riscv.hpp ****     __asm__ volatile ("csrr %[sepc], sepc" : [sepc] "=r"(sepc));
  76:src/../h/riscv.hpp ****     return sepc;
  77:src/../h/riscv.hpp **** }
  78:src/../h/riscv.hpp **** 
  79:src/../h/riscv.hpp **** inline void Riscv::w_sepc(uint64 sepc) {
  80:src/../h/riscv.hpp ****     __asm__ volatile ("csrw sepc, %[sepc]" : : [sepc] "r"(sepc));
  81:src/../h/riscv.hpp **** }
  82:src/../h/riscv.hpp **** 
GAS LISTING /tmp/ccpiGvb5.s 			page 3


  83:src/../h/riscv.hpp **** inline uint64 Riscv::r_stvec() {
  84:src/../h/riscv.hpp ****     uint64 volatile stvec;
  85:src/../h/riscv.hpp ****     __asm__ volatile ("csrr %[stvec], stvec" : [stvec] "=r"(stvec));
  86:src/../h/riscv.hpp ****     return stvec;
  87:src/../h/riscv.hpp **** }
  88:src/../h/riscv.hpp **** 
  89:src/../h/riscv.hpp **** inline void Riscv::w_stvec(uint64 stvec) {
  90:src/../h/riscv.hpp ****     __asm__ volatile ("csrw stvec, %[stvec]" : : [stvec] "r"(stvec));
  91:src/../h/riscv.hpp **** }
  92:src/../h/riscv.hpp **** 
  93:src/../h/riscv.hpp **** inline uint64 Riscv::r_stval() {
  94:src/../h/riscv.hpp ****     uint64 volatile stval;
  95:src/../h/riscv.hpp ****     __asm__ volatile ("csrr %[stval], stval" : [stval] "=r"(stval));
  96:src/../h/riscv.hpp ****     return stval;
  97:src/../h/riscv.hpp **** }
  98:src/../h/riscv.hpp **** 
  99:src/../h/riscv.hpp **** inline void Riscv::w_stval(uint64 stval) {
 100:src/../h/riscv.hpp ****     __asm__ volatile ("csrw stval, %[stval]" : : [stval] "r"(stval));
 101:src/../h/riscv.hpp **** }
 102:src/../h/riscv.hpp **** 
 103:src/../h/riscv.hpp **** inline void Riscv::ms_sip(uint64 mask) {
 104:src/../h/riscv.hpp ****     __asm__ volatile ("csrs sip, %[mask]" : : [mask] "r"(mask));
 105:src/../h/riscv.hpp **** }
 106:src/../h/riscv.hpp **** 
 107:src/../h/riscv.hpp **** inline void Riscv::mc_sip(uint64 mask){
 108:src/../h/riscv.hpp ****     __asm__ volatile ("csrc sip, %[mask]" : : [mask] "r"(mask));
 109:src/../h/riscv.hpp **** }
 110:src/../h/riscv.hpp **** 
 111:src/../h/riscv.hpp **** inline uint64 Riscv::r_sip() {
 112:src/../h/riscv.hpp ****     uint64 volatile sip;
 113:src/../h/riscv.hpp ****     __asm__ volatile ("csrr %[sip], sip" : [sip] "=r"(sip));
 114:src/../h/riscv.hpp ****     return sip;
 115:src/../h/riscv.hpp **** }
 116:src/../h/riscv.hpp **** 
 117:src/../h/riscv.hpp **** inline void Riscv::w_sip(uint64 sip) {
 118:src/../h/riscv.hpp ****     __asm__ volatile ("csrw sip, %[sip]" : : [sip] "r"(sip));
 119:src/../h/riscv.hpp **** }
 120:src/../h/riscv.hpp **** 
 121:src/../h/riscv.hpp **** inline void Riscv::ms_sstatus(uint64 mask) {
 122:src/../h/riscv.hpp ****     __asm__ volatile ("csrs sstatus, %[mask]" : : [mask] "r"(mask));
 123:src/../h/riscv.hpp **** }
 124:src/../h/riscv.hpp **** 
 125:src/../h/riscv.hpp **** inline void Riscv::mc_sstatus(uint64 mask){
 126:src/../h/riscv.hpp ****     __asm__ volatile ("csrc sstatus, %[mask]" : : [mask] "r"(mask));
  25              		.loc 2 126 5
  26              		.loc 2 126 68 is_stmt 0
  27 000c 93070020 		li	a5,512
  28              	#APP
  29              	# 126 "src/../h/riscv.hpp" 1
 127              	}
  30              		csrc sstatus, a5
  31              	# 0 "" 2
  32              	.LVL1:
  33              	#NO_APP
  34              	.LBE40:
  35              	.LBE39:
  10:src/riscv.cpp ****     __asm__ volatile("csrw sepc, ra"); // ra je lokacija sa koje je funkcija pozvana
GAS LISTING /tmp/ccpiGvb5.s 			page 4


  36              		.loc 1 10 5 is_stmt 1
  37              		.loc 1 10 38 is_stmt 0
  38              	#APP
  39              	# 10 "src/riscv.cpp" 1
  11              	    __asm__ volatile ("sret");
  40              		csrw sepc, ra
  41              	# 0 "" 2
  42              		.loc 1 11 5 is_stmt 1
  43              		.loc 1 11 30 is_stmt 0
  44              	# 11 "src/riscv.cpp" 1
  12              	}
  45              		sret
  46              	# 0 "" 2
  47              		.loc 1 12 1
  48              	#NO_APP
  49 001c 03348100 		ld	s0,8(sp)
  50              		.cfi_restore 8
  51              		.cfi_def_cfa 2, 16
  52 0020 13010101 		addi	sp,sp,16
  53              		.cfi_def_cfa_offset 0
  54 0024 67800000 		jr	ra
  55              		.cfi_endproc
  56              	.LFE38:
  58              		.section	.rodata.str1.8,"aMS",@progbits,1
  59              		.align	3
  60              	.LC0:
  61 0000 0A00     		.string	"\n"
  62 0002 00000000 		.align	3
  62      0000
  63              	.LC1:
  64 0008 556E6578 		.string	"Unexpected trap cause!\n"
  64      70656374 
  64      65642074 
  64      72617020 
  64      63617573 
  65              		.align	3
  66              	.LC2:
  67 0020 53434155 		.string	"SCAUSE: "
  67      53453A20 
  67      00
  68 0029 00000000 		.align	3
  68      000000
  69              	.LC3:
  70 0030 2C205345 		.string	", SEPC: "
  70      50433A20 
  70      00
  71              		.text
  72              		.align	2
  73              		.globl	_ZN5Riscv20handleSupervisorTrapEv
  75              	_ZN5Riscv20handleSupervisorTrapEv:
  76              	.LFB39:
  13:src/riscv.cpp **** 
  14:src/riscv.cpp **** void Riscv::handleSupervisorTrap() {
  77              		.loc 1 14 36 is_stmt 1
  78              		.cfi_startproc
  79 0028 130101FB 		addi	sp,sp,-80
  80              		.cfi_def_cfa_offset 80
GAS LISTING /tmp/ccpiGvb5.s 			page 5


  81 002c 23341104 		sd	ra,72(sp)
  82 0030 23308104 		sd	s0,64(sp)
  83 0034 233C9102 		sd	s1,56(sp)
  84              		.cfi_offset 1, -8
  85              		.cfi_offset 8, -16
  86              		.cfi_offset 9, -24
  87 0038 13040105 		addi	s0,sp,80
  88              		.cfi_def_cfa 8, 0
  15:src/riscv.cpp ****     uint64 scause = r_scause();
  89              		.loc 1 15 5
  90              	.LBB41:
  91              	.LBB42:
  64:src/../h/riscv.hpp ****     __asm__ volatile ("csrr %[scause], scause" : [scause] "=r"(scause));
  92              		.loc 2 64 5
  65:src/../h/riscv.hpp ****     return scause;
  93              		.loc 2 65 5
  65:src/../h/riscv.hpp ****     return scause;
  94              		.loc 2 65 72 is_stmt 0
  95              	#APP
  96              	# 65 "src/../h/riscv.hpp" 1
  97              		csrr a5, scause
  98              	# 0 "" 2
  99              	#NO_APP
 100 0040 2334F4FC 		sd	a5,-56(s0)
  66:src/../h/riscv.hpp **** }
 101              		.loc 2 66 5 is_stmt 1
  66:src/../h/riscv.hpp **** }
 102              		.loc 2 66 12 is_stmt 0
 103 0044 833484FC 		ld	s1,-56(s0)
 104              	.LVL2:
 105              	.LBE42:
 106              	.LBE41:
  16:src/riscv.cpp ****     if(scause == 0x0000000000000008UL || scause == 0x0000000000000009UL ) {
 107              		.loc 1 16 5 is_stmt 1
 108              	.LBB43:
 109              		.loc 1 16 39 is_stmt 0
 110 0048 138784FF 		addi	a4,s1,-8
 111              		.loc 1 16 5
 112 004c 93071000 		li	a5,1
 113 0050 63F4E708 		bleu	a4,a5,.L30
  17:src/riscv.cpp ****         //nije interrupt - ne pocinje sa 8, ecall je, znamo zato sto je 9 na kraju "Enviornment cal
  18:src/riscv.cpp **** 
  19:src/riscv.cpp ****         uint64 volatile sepc = r_sepc() + 4;
  20:src/riscv.cpp ****         uint64 volatile sstatus = r_sstatus();
  21:src/riscv.cpp **** 
  22:src/riscv.cpp ****         uint64 sisPoziv;
  23:src/riscv.cpp ****         asm volatile("ld %0, 8*10(fp)" : "=r"(sisPoziv));
  24:src/riscv.cpp ****         switch (sisPoziv) {
  25:src/riscv.cpp ****             case 0x42: {
  26:src/riscv.cpp ****                 //PUTC
  27:src/riscv.cpp ****                 char c;
  28:src/riscv.cpp ****                 asm volatile ("ld %0, 8*11(fp)": "=r" (c));
  29:src/riscv.cpp ****                 //u c upisujem ono iz a1
  30:src/riscv.cpp ****                 __putc(c);
  31:src/riscv.cpp **** 
  32:src/riscv.cpp ****                 break;
  33:src/riscv.cpp ****             }
GAS LISTING /tmp/ccpiGvb5.s 			page 6


  34:src/riscv.cpp ****             case 0x41: {
  35:src/riscv.cpp ****                 //GETC
  36:src/riscv.cpp ****                 char c = __getc();
  37:src/riscv.cpp ****                 asm volatile ("sd %0, 8*10(fp)" :: "r"(c)); //storuje u a0 nas c
  38:src/riscv.cpp **** 
  39:src/riscv.cpp ****                 break;
  40:src/riscv.cpp ****             }
  41:src/riscv.cpp ****             case 0x01: {
  42:src/riscv.cpp ****                 //MEM ALLOC
  43:src/riscv.cpp ****                 size_t size;
  44:src/riscv.cpp ****                 asm volatile ("ld %0, 8*11(fp)": "=r" (size));
  45:src/riscv.cpp ****                 void* alocirano = __mem_alloc(size*MEM_BLOCK_SIZE);
  46:src/riscv.cpp ****                 asm volatile ("sd %0, 8*10(fp)" :: "r"(alocirano));
  47:src/riscv.cpp **** 
  48:src/riscv.cpp ****                 break;
  49:src/riscv.cpp ****             }
  50:src/riscv.cpp ****             case 0x02: {
  51:src/riscv.cpp ****                 //MEM FREE
  52:src/riscv.cpp ****                 void* arg;
  53:src/riscv.cpp ****                 asm volatile("ld %0, 8*11(fp)": "=r"(arg));
  54:src/riscv.cpp ****                 size_t rez = __mem_free(arg);
  55:src/riscv.cpp ****                 asm volatile("sd %0, 8*10(fp)" :: "r"(rez));
  56:src/riscv.cpp **** 
  57:src/riscv.cpp ****                 break;
  58:src/riscv.cpp ****             }
  59:src/riscv.cpp ****             case 0x11: {
  60:src/riscv.cpp ****                 //THREAD CREATE
  61:src/riscv.cpp ****                 //uzimanje arg sa steka i stavljanje u lok prom
  62:src/riscv.cpp ****                 TCB** handle;
  63:src/riscv.cpp ****                 void* args;
  64:src/riscv.cpp ****                 TCB::Body body;
  65:src/riscv.cpp ****                 char* stack;
  66:src/riscv.cpp **** 
  67:src/riscv.cpp ****                 asm volatile("ld %0, 8*11(fp)" : "=r"(handle));
  68:src/riscv.cpp ****                 asm volatile("ld %0, 8*12(fp)" : "=r"(body));
  69:src/riscv.cpp ****                 asm volatile("ld %0, 8*13(fp)" : "=r"(args));
  70:src/riscv.cpp ****                 asm volatile("ld %0, 8*14(fp)" : "=r"(stack));
  71:src/riscv.cpp **** 
  72:src/riscv.cpp ****                 *handle = TCB::createThread(body, args, stack);
  73:src/riscv.cpp ****                 //rez se vraca u a0
  74:src/riscv.cpp ****                 uint64 rez;
  75:src/riscv.cpp ****                 if(*handle) rez = 0;
  76:src/riscv.cpp ****                 else rez = -1;
  77:src/riscv.cpp ****                 asm volatile("sd %0, 8*10(fp)" :: "r"(rez));
  78:src/riscv.cpp ****                 break;
  79:src/riscv.cpp ****             }
  80:src/riscv.cpp ****             case 0x12: {
  81:src/riscv.cpp ****                 //THREAD EXIT
  82:src/riscv.cpp ****                 TCB* tren = TCB::running;
  83:src/riscv.cpp ****                 tren->setFinished(true);
  84:src/riscv.cpp ****                 TCB *pret = tren;
  85:src/riscv.cpp ****                 TCB::dispatch();
  86:src/riscv.cpp ****                 delete pret;
  87:src/riscv.cpp **** 
  88:src/riscv.cpp ****                 break;
  89:src/riscv.cpp ****             }
  90:src/riscv.cpp ****             case 0x13: {
GAS LISTING /tmp/ccpiGvb5.s 			page 7


  91:src/riscv.cpp ****                 //DISPATCH
  92:src/riscv.cpp ****                 TCB::dispatch();
  93:src/riscv.cpp ****                 break;
  94:src/riscv.cpp ****             }
  95:src/riscv.cpp ****             case 0x21: {
  96:src/riscv.cpp ****                 //SEM_OPEN
  97:src/riscv.cpp ****                 Sem** handle;
  98:src/riscv.cpp ****                 int val;
  99:src/riscv.cpp **** 
 100:src/riscv.cpp ****                 asm volatile("ld %0, 8*11(fp)" : "=r"(handle));
 101:src/riscv.cpp ****                 asm volatile("ld %0, 8*12(fp)" : "=r"(val));
 102:src/riscv.cpp **** 
 103:src/riscv.cpp ****                 *handle = Sem::sem_open(val);
 104:src/riscv.cpp ****                 //rez se vraca u a0
 105:src/riscv.cpp ****                 uint64 rez;
 106:src/riscv.cpp ****                 if(handle) rez = 0;
 107:src/riscv.cpp ****                 else rez = -1;
 108:src/riscv.cpp **** 
 109:src/riscv.cpp ****                 asm volatile("sd %0, 8*10(fp)" :: "r"(rez));
 110:src/riscv.cpp **** 
 111:src/riscv.cpp ****                 break;
 112:src/riscv.cpp ****             }
 113:src/riscv.cpp ****             case 0x22: {
 114:src/riscv.cpp ****                 //SEM_CLOSE
 115:src/riscv.cpp ****                 Sem* handle;
 116:src/riscv.cpp ****                 asm volatile("ld %0, 8*11(fp)" : "=r"(handle));
 117:src/riscv.cpp **** 
 118:src/riscv.cpp ****                 int povratnaVrednost = 0;
 119:src/riscv.cpp **** 
 120:src/riscv.cpp ****                 handle->sem_close();
 121:src/riscv.cpp **** 
 122:src/riscv.cpp ****                 asm volatile("sd %0, 8*10(fp)" :: "r"(povratnaVrednost));
 123:src/riscv.cpp **** 
 124:src/riscv.cpp ****                 break;
 125:src/riscv.cpp ****             }
 126:src/riscv.cpp ****             case 0x23: {
 127:src/riscv.cpp ****                 //SEM_WAIT
 128:src/riscv.cpp ****                 Sem* handle;
 129:src/riscv.cpp ****                 asm volatile("ld %0, 8*11(fp)" : "=r"(handle));
 130:src/riscv.cpp **** 
 131:src/riscv.cpp ****                 int povratnaVrednost = 0;
 132:src/riscv.cpp ****                 handle->sem_wait();
 133:src/riscv.cpp **** 
 134:src/riscv.cpp ****                 asm volatile("sd %0, 8*10(fp)" :: "r"(povratnaVrednost));
 135:src/riscv.cpp **** 
 136:src/riscv.cpp ****                 break;
 137:src/riscv.cpp ****             }
 138:src/riscv.cpp ****             case 0x24: {
 139:src/riscv.cpp ****                 //SEM_SIGNAL
 140:src/riscv.cpp ****                 Sem* handle;
 141:src/riscv.cpp ****                 asm volatile("ld %0, 8*11(fp)" : "=r"(handle));
 142:src/riscv.cpp **** 
 143:src/riscv.cpp ****                 int povratnaVrednost = 0;
 144:src/riscv.cpp ****                 handle->sem_signal();
 145:src/riscv.cpp **** 
 146:src/riscv.cpp ****                 asm volatile("sd %0, 8*10(fp)" :: "r"(povratnaVrednost));
 147:src/riscv.cpp **** 
GAS LISTING /tmp/ccpiGvb5.s 			page 8


 148:src/riscv.cpp ****                 break;
 149:src/riscv.cpp ****             }
 150:src/riscv.cpp ****             case 0x25: {
 151:src/riscv.cpp ****                 // sem_timedwait
 152:src/riscv.cpp ****                 int rez = -1;
 153:src/riscv.cpp ****                 asm volatile("sd %0, 8*10(fp)" :: "r"(rez));
 154:src/riscv.cpp **** 
 155:src/riscv.cpp ****                 break;
 156:src/riscv.cpp ****             }
 157:src/riscv.cpp ****             case 0x26: {
 158:src/riscv.cpp ****                 // sem_trywait
 159:src/riscv.cpp ****                 Sem* handle;
 160:src/riscv.cpp ****                 asm volatile("ld %0, 8*11(fp)" : "=r"(handle));
 161:src/riscv.cpp **** 
 162:src/riscv.cpp ****                 int povratnaVrednost = 0;
 163:src/riscv.cpp ****                 handle->sem_trywait();
 164:src/riscv.cpp **** 
 165:src/riscv.cpp ****                 asm volatile("sd %0, 8*10(fp)" :: "r"(povratnaVrednost));
 166:src/riscv.cpp **** 
 167:src/riscv.cpp ****                 break;
 168:src/riscv.cpp ****             }
 169:src/riscv.cpp ****         }
 170:src/riscv.cpp **** 
 171:src/riscv.cpp ****         w_sstatus(sstatus);
 172:src/riscv.cpp ****         w_sepc(sepc);
 173:src/riscv.cpp **** 
 174:src/riscv.cpp ****     }
 175:src/riscv.cpp ****     else if(scause == 0x8000000000000001UL) {
 114              		.loc 1 175 10 is_stmt 1
 115 0054 9307F0FF 		li	a5,-1
 116 0058 9397F703 		slli	a5,a5,63
 117 005c 93871700 		addi	a5,a5,1
 118 0060 6388F424 		beq	s1,a5,.L31
 176:src/riscv.cpp ****         // interrupt: yes, cause code: supervisor softwer interrupt (timer)
 177:src/riscv.cpp **** //        TCB::timeSliceCounter++;
 178:src/riscv.cpp **** //        if (TCB::timeSliceCounter >= TCB::running->getTimeSlice())
 179:src/riscv.cpp **** //        {
 180:src/riscv.cpp **** //            uint64 sepc = r_sepc();
 181:src/riscv.cpp **** //            uint64 sstatus = r_sstatus();
 182:src/riscv.cpp **** //            TCB::timeSliceCounter = 0; // za novu nit
 183:src/riscv.cpp **** //            w_sstatus(sstatus); //restauracija
 184:src/riscv.cpp **** //            TCB::dispatch();
 185:src/riscv.cpp **** //            w_sepc(sepc); // restauriramo sepc od niti koja je ranije izgubila procesor
 186:src/riscv.cpp **** //
 187:src/riscv.cpp **** //        }
 188:src/riscv.cpp ****         mc_sip(SIP_SSIP);
 189:src/riscv.cpp ****     } else if (scause == 0x8000000000000009UL) {
 119              		.loc 1 189 12
 120 0064 9307F0FF 		li	a5,-1
 121 0068 9397F703 		slli	a5,a5,63
 122 006c 93879700 		addi	a5,a5,9
 123 0070 6386F424 		beq	s1,a5,.L32
 190:src/riscv.cpp ****         // interrupt: yes, cause code: supervisor external interrupt (console)
 191:src/riscv.cpp ****         console_handler();
 192:src/riscv.cpp ****     } else {
 193:src/riscv.cpp ****         //neocekivan prekid! unexpected trap cause
 194:src/riscv.cpp ****         _printString("\n");
GAS LISTING /tmp/ccpiGvb5.s 			page 9


 124              		.loc 1 194 9
 125              		.loc 1 194 21 is_stmt 0
 126 0074 17050000 		lla	a0,.LC0
 126      13050500 
 127 007c 97000000 		call	_Z12_printStringPKc@plt
 127      E7800000 
 128              	.LVL3:
 195:src/riscv.cpp ****         _printString("Unexpected trap cause!\n");
 129              		.loc 1 195 9 is_stmt 1
 130              		.loc 1 195 21 is_stmt 0
 131 0084 17050000 		lla	a0,.LC1
 131      13050500 
 132 008c 97000000 		call	_Z12_printStringPKc@plt
 132      E7800000 
 133              	.LVL4:
 196:src/riscv.cpp ****         _printString("SCAUSE: ");
 134              		.loc 1 196 9 is_stmt 1
 135              		.loc 1 196 21 is_stmt 0
 136 0094 17050000 		lla	a0,.LC2
 136      13050500 
 137 009c 97000000 		call	_Z12_printStringPKc@plt
 137      E7800000 
 138              	.LVL5:
 197:src/riscv.cpp ****         _printInteger(scause);
 139              		.loc 1 197 9 is_stmt 1
 140              		.loc 1 197 22 is_stmt 0
 141 00a4 13850400 		mv	a0,s1
 142 00a8 97000000 		call	_Z13_printIntegerm@plt
 142      E7800000 
 143              	.LVL6:
 198:src/riscv.cpp ****         _printString(", SEPC: ");
 144              		.loc 1 198 9 is_stmt 1
 145              		.loc 1 198 21 is_stmt 0
 146 00b0 17050000 		lla	a0,.LC3
 146      13050500 
 147 00b8 97000000 		call	_Z12_printStringPKc@plt
 147      E7800000 
 148              	.LVL7:
 199:src/riscv.cpp ****         _printInteger(r_sepc());
 149              		.loc 1 199 9 is_stmt 1
 150              	.LBB44:
 151              	.LBB45:
  74:src/../h/riscv.hpp ****     __asm__ volatile ("csrr %[sepc], sepc" : [sepc] "=r"(sepc));
 152              		.loc 2 74 5
  75:src/../h/riscv.hpp ****     return sepc;
 153              		.loc 2 75 5
  75:src/../h/riscv.hpp ****     return sepc;
 154              		.loc 2 75 64 is_stmt 0
 155              	#APP
 156              	# 75 "src/../h/riscv.hpp" 1
 157              		csrr a5, sepc
 158              	# 0 "" 2
 159              	#NO_APP
 160 00c4 233CF4FC 		sd	a5,-40(s0)
  76:src/../h/riscv.hpp **** }
 161              		.loc 2 76 5 is_stmt 1
  76:src/../h/riscv.hpp **** }
GAS LISTING /tmp/ccpiGvb5.s 			page 10


 162              		.loc 2 76 12 is_stmt 0
 163 00c8 033584FD 		ld	a0,-40(s0)
 164              	.LBE45:
 165              	.LBE44:
 166              		.loc 1 199 22
 167 00cc 97000000 		call	_Z13_printIntegerm@plt
 167      E7800000 
 168              	.LVL8:
 169              	.L26:
 200:src/riscv.cpp ****         while(true){ }
 170              		.loc 1 200 9 is_stmt 1 discriminator 1
 171              		.loc 1 200 9 discriminator 1
 172 00d4 6F000000 		j	.L26
 173              	.L30:
 174              	.LBB46:
  19:src/riscv.cpp ****         uint64 volatile sstatus = r_sstatus();
 175              		.loc 1 19 9
 176              	.LBB47:
 177              	.LBB48:
  74:src/../h/riscv.hpp ****     __asm__ volatile ("csrr %[sepc], sepc" : [sepc] "=r"(sepc));
 178              		.loc 2 74 5
  75:src/../h/riscv.hpp ****     return sepc;
 179              		.loc 2 75 5
  75:src/../h/riscv.hpp ****     return sepc;
 180              		.loc 2 75 64 is_stmt 0
 181              	#APP
 182              	# 75 "src/../h/riscv.hpp" 1
 183              		csrr a5, sepc
 184              	# 0 "" 2
 185              	#NO_APP
 186 00dc 233CF4FC 		sd	a5,-40(s0)
  76:src/../h/riscv.hpp **** }
 187              		.loc 2 76 5 is_stmt 1
  76:src/../h/riscv.hpp **** }
 188              		.loc 2 76 12 is_stmt 0
 189 00e0 833784FD 		ld	a5,-40(s0)
 190              	.LBE48:
 191              	.LBE47:
  19:src/riscv.cpp ****         uint64 volatile sstatus = r_sstatus();
 192              		.loc 1 19 41
 193 00e4 93874700 		addi	a5,a5,4
  19:src/riscv.cpp ****         uint64 volatile sstatus = r_sstatus();
 194              		.loc 1 19 43
 195 00e8 233CF4FA 		sd	a5,-72(s0)
  20:src/riscv.cpp **** 
 196              		.loc 1 20 9 is_stmt 1
 197              	.LBB49:
 198              	.LBB50:
 128:src/../h/riscv.hpp **** 
 129:src/../h/riscv.hpp **** inline uint64 Riscv::r_sstatus() {
 130:src/../h/riscv.hpp ****     uint64 volatile sstatus;
 199              		.loc 2 130 5
 131:src/../h/riscv.hpp ****     __asm__ volatile ("csrr %[sstatus], sstatus" : [sstatus] "=r"(sstatus));
 200              		.loc 2 131 5
 201              		.loc 2 131 76 is_stmt 0
 202              	#APP
 203              	# 131 "src/../h/riscv.hpp" 1
GAS LISTING /tmp/ccpiGvb5.s 			page 11


 132              	    return sstatus;
 204              		csrr a5, sstatus
 205              	# 0 "" 2
 206              	#NO_APP
 207 00f0 2338F4FC 		sd	a5,-48(s0)
 208              		.loc 2 132 5 is_stmt 1
 209              		.loc 2 132 12 is_stmt 0
 210 00f4 833704FD 		ld	a5,-48(s0)
 211              	.LBE50:
 212              	.LBE49:
  20:src/riscv.cpp **** 
 213              		.loc 1 20 45
 214 00f8 2330F4FC 		sd	a5,-64(s0)
  22:src/riscv.cpp ****         asm volatile("ld %0, 8*10(fp)" : "=r"(sisPoziv));
 215              		.loc 1 22 9 is_stmt 1
  23:src/riscv.cpp ****         switch (sisPoziv) {
 216              		.loc 1 23 9
  23:src/riscv.cpp ****         switch (sisPoziv) {
 217              		.loc 1 23 57 is_stmt 0
 218              	#APP
 219              	# 23 "src/riscv.cpp" 1
 220              		ld a5, 8*10(fp)
 221              	# 0 "" 2
 222              	.LVL9:
  24:src/riscv.cpp ****             case 0x42: {
 223              		.loc 1 24 9 is_stmt 1
 224              	#NO_APP
 225 0100 13072004 		li	a4,66
 226 0104 6368F702 		bgtu	a5,a4,.L5
 227 0108 93972700 		slli	a5,a5,2
 228              	.LVL10:
 229 010c 17070000 		lla	a4,.L7
 229      13070700 
 230 0114 B387E700 		add	a5,a5,a4
 231 0118 83A70700 		lw	a5,0(a5)
 232 011c B387E700 		add	a5,a5,a4
 233 0120 67800700 		jr	a5
 234              		.section	.rodata
 235              		.align	2
 236              		.align	2
 237              	.L7:
 238 0000 00000000 		.word	.L5-.L7
 239 0004 00000000 		.word	.L19-.L7
 240 0008 00000000 		.word	.L18-.L7
 241 000c 00000000 		.word	.L5-.L7
 242 0010 00000000 		.word	.L5-.L7
 243 0014 00000000 		.word	.L5-.L7
 244 0018 00000000 		.word	.L5-.L7
 245 001c 00000000 		.word	.L5-.L7
 246 0020 00000000 		.word	.L5-.L7
 247 0024 00000000 		.word	.L5-.L7
 248 0028 00000000 		.word	.L5-.L7
 249 002c 00000000 		.word	.L5-.L7
 250 0030 00000000 		.word	.L5-.L7
 251 0034 00000000 		.word	.L5-.L7
 252 0038 00000000 		.word	.L5-.L7
 253 003c 00000000 		.word	.L5-.L7
GAS LISTING /tmp/ccpiGvb5.s 			page 12


 254 0040 00000000 		.word	.L5-.L7
 255 0044 00000000 		.word	.L17-.L7
 256 0048 00000000 		.word	.L16-.L7
 257 004c 00000000 		.word	.L15-.L7
 258 0050 00000000 		.word	.L5-.L7
 259 0054 00000000 		.word	.L5-.L7
 260 0058 00000000 		.word	.L5-.L7
 261 005c 00000000 		.word	.L5-.L7
 262 0060 00000000 		.word	.L5-.L7
 263 0064 00000000 		.word	.L5-.L7
 264 0068 00000000 		.word	.L5-.L7
 265 006c 00000000 		.word	.L5-.L7
 266 0070 00000000 		.word	.L5-.L7
 267 0074 00000000 		.word	.L5-.L7
 268 0078 00000000 		.word	.L5-.L7
 269 007c 00000000 		.word	.L5-.L7
 270 0080 00000000 		.word	.L5-.L7
 271 0084 00000000 		.word	.L14-.L7
 272 0088 00000000 		.word	.L13-.L7
 273 008c 00000000 		.word	.L12-.L7
 274 0090 00000000 		.word	.L11-.L7
 275 0094 00000000 		.word	.L10-.L7
 276 0098 00000000 		.word	.L9-.L7
 277 009c 00000000 		.word	.L5-.L7
 278 00a0 00000000 		.word	.L5-.L7
 279 00a4 00000000 		.word	.L5-.L7
 280 00a8 00000000 		.word	.L5-.L7
 281 00ac 00000000 		.word	.L5-.L7
 282 00b0 00000000 		.word	.L5-.L7
 283 00b4 00000000 		.word	.L5-.L7
 284 00b8 00000000 		.word	.L5-.L7
 285 00bc 00000000 		.word	.L5-.L7
 286 00c0 00000000 		.word	.L5-.L7
 287 00c4 00000000 		.word	.L5-.L7
 288 00c8 00000000 		.word	.L5-.L7
 289 00cc 00000000 		.word	.L5-.L7
 290 00d0 00000000 		.word	.L5-.L7
 291 00d4 00000000 		.word	.L5-.L7
 292 00d8 00000000 		.word	.L5-.L7
 293 00dc 00000000 		.word	.L5-.L7
 294 00e0 00000000 		.word	.L5-.L7
 295 00e4 00000000 		.word	.L5-.L7
 296 00e8 00000000 		.word	.L5-.L7
 297 00ec 00000000 		.word	.L5-.L7
 298 00f0 00000000 		.word	.L5-.L7
 299 00f4 00000000 		.word	.L5-.L7
 300 00f8 00000000 		.word	.L5-.L7
 301 00fc 00000000 		.word	.L5-.L7
 302 0100 00000000 		.word	.L5-.L7
 303 0104 00000000 		.word	.L8-.L7
 304 0108 00000000 		.word	.L6-.L7
 305              		.text
 306              	.L6:
 307              	.LBB51:
 308              	.LBB52:
  25:src/riscv.cpp ****                 //PUTC
 309              		.loc 1 25 13
GAS LISTING /tmp/ccpiGvb5.s 			page 13


  25:src/riscv.cpp ****                 //PUTC
 310              		.loc 1 25 24
 311              	.LBB53:
  27:src/riscv.cpp ****                 asm volatile ("ld %0, 8*11(fp)": "=r" (c));
 312              		.loc 1 27 17
  28:src/riscv.cpp ****                 //u c upisujem ono iz a1
 313              		.loc 1 28 17
  28:src/riscv.cpp ****                 //u c upisujem ono iz a1
 314              		.loc 1 28 59 is_stmt 0
 315              	#APP
 316              	# 28 "src/riscv.cpp" 1
 317              		ld a0, 8*11(fp)
 318              	# 0 "" 2
 319              	.LVL11:
  30:src/riscv.cpp **** 
 320              		.loc 1 30 17 is_stmt 1
  30:src/riscv.cpp **** 
 321              		.loc 1 30 23 is_stmt 0
 322              	#NO_APP
 323 0128 1375F50F 		andi	a0,a0,0xff
 324 012c 97000000 		call	__putc@plt
 324      E7800000 
 325              	.LVL12:
  32:src/riscv.cpp ****             }
 326              		.loc 1 32 17 is_stmt 1
 327              	.L5:
 328              	.LBE53:
 329              	.LBE52:
 330              	.LBE51:
 171:src/riscv.cpp ****         w_sepc(sepc);
 331              		.loc 1 171 9
 171:src/riscv.cpp ****         w_sepc(sepc);
 332              		.loc 1 171 18 is_stmt 0
 333 0134 833704FC 		ld	a5,-64(s0)
 334              	.LVL13:
 335              	.LBB70:
 336              	.LBB71:
 133:src/../h/riscv.hpp **** }
 134:src/../h/riscv.hpp **** 
 135:src/../h/riscv.hpp **** inline void Riscv::w_sstatus(uint64 sstatus) {
 136:src/../h/riscv.hpp ****     __asm__ volatile ("csrw sstatus, %[sstatus]" : : [sstatus] "r"(sstatus));
 337              		.loc 2 136 5 is_stmt 1
 338              		.loc 2 136 77 is_stmt 0
 339              	#APP
 340              	# 136 "src/../h/riscv.hpp" 1
 137              	}
 341              		csrw sstatus, a5
 342              	# 0 "" 2
 343              	.LVL14:
 344              	#NO_APP
 345              	.LBE71:
 346              	.LBE70:
 172:src/riscv.cpp **** 
 347              		.loc 1 172 9 is_stmt 1
 172:src/riscv.cpp **** 
 348              		.loc 1 172 15 is_stmt 0
 349 013c 833784FB 		ld	a5,-72(s0)
GAS LISTING /tmp/ccpiGvb5.s 			page 14


 350              	.LVL15:
 351              	.LBB72:
 352              	.LBB73:
  80:src/../h/riscv.hpp **** }
 353              		.loc 2 80 5 is_stmt 1
  80:src/../h/riscv.hpp **** }
 354              		.loc 2 80 65 is_stmt 0
 355              	#APP
 356              	# 80 "src/../h/riscv.hpp" 1
 357              		csrw sepc, a5
 358              	# 0 "" 2
 359              	.LVL16:
 360              	#NO_APP
 361              	.L3:
 362              	.LBE73:
 363              	.LBE72:
 364              	.LBE46:
 365              	.LBE43:
 201:src/riscv.cpp ****     }
 202:src/riscv.cpp **** }
 366              		.loc 1 202 1
 367 0144 83308104 		ld	ra,72(sp)
 368              		.cfi_remember_state
 369              		.cfi_restore 1
 370 0148 03340104 		ld	s0,64(sp)
 371              		.cfi_restore 8
 372              		.cfi_def_cfa 2, 80
 373 014c 83348103 		ld	s1,56(sp)
 374              		.cfi_restore 9
 375 0150 13010105 		addi	sp,sp,80
 376              		.cfi_def_cfa_offset 0
 377 0154 67800000 		jr	ra
 378              	.LVL17:
 379              	.L8:
 380              		.cfi_restore_state
 381              	.LBB78:
 382              	.LBB75:
 383              	.LBB74:
 384              	.LBB69:
  34:src/riscv.cpp ****                 //GETC
 385              		.loc 1 34 13 is_stmt 1
  34:src/riscv.cpp ****                 //GETC
 386              		.loc 1 34 24
 387              	.LBB54:
  36:src/riscv.cpp ****                 asm volatile ("sd %0, 8*10(fp)" :: "r"(c)); //storuje u a0 nas c
 388              		.loc 1 36 17
  36:src/riscv.cpp ****                 asm volatile ("sd %0, 8*10(fp)" :: "r"(c)); //storuje u a0 nas c
 389              		.loc 1 36 32 is_stmt 0
 390 0158 97000000 		call	__getc@plt
 390      E7800000 
 391              	.LVL18:
  37:src/riscv.cpp **** 
 392              		.loc 1 37 17 is_stmt 1
  37:src/riscv.cpp **** 
 393              		.loc 1 37 59 is_stmt 0
 394              	#APP
 395              	# 37 "src/riscv.cpp" 1
GAS LISTING /tmp/ccpiGvb5.s 			page 15


  39:src/riscv.cpp ****             }
 396              		sd a0, 8*10(fp)
 397              	# 0 "" 2
 398              		.loc 1 39 17 is_stmt 1
 399              	#NO_APP
 400 0164 6FF01FFD 		j	.L5
 401              	.LVL19:
 402              	.L19:
 403              	.LBE54:
  41:src/riscv.cpp ****                 //MEM ALLOC
 404              		.loc 1 41 13
  41:src/riscv.cpp ****                 //MEM ALLOC
 405              		.loc 1 41 24
 406              	.LBB55:
  43:src/riscv.cpp ****                 asm volatile ("ld %0, 8*11(fp)": "=r" (size));
 407              		.loc 1 43 17
  44:src/riscv.cpp ****                 void* alocirano = __mem_alloc(size*MEM_BLOCK_SIZE);
 408              		.loc 1 44 17
  44:src/riscv.cpp ****                 void* alocirano = __mem_alloc(size*MEM_BLOCK_SIZE);
 409              		.loc 1 44 62 is_stmt 0
 410              	#APP
 411              	# 44 "src/riscv.cpp" 1
 412              		ld a0, 8*11(fp)
 413              	# 0 "" 2
 414              	.LVL20:
  45:src/riscv.cpp ****                 asm volatile ("sd %0, 8*10(fp)" :: "r"(alocirano));
 415              		.loc 1 45 17 is_stmt 1
  45:src/riscv.cpp ****                 asm volatile ("sd %0, 8*10(fp)" :: "r"(alocirano));
 416              		.loc 1 45 46 is_stmt 0
 417              	#NO_APP
 418 016c 13156500 		slli	a0,a0,6
 419              	.LVL21:
 420 0170 97000000 		call	__mem_alloc@plt
 420      E7800000 
 421              	.LVL22:
  46:src/riscv.cpp **** 
 422              		.loc 1 46 17 is_stmt 1
  46:src/riscv.cpp **** 
 423              		.loc 1 46 67 is_stmt 0
 424              	#APP
 425              	# 46 "src/riscv.cpp" 1
  48:src/riscv.cpp ****             }
 426              		sd a0, 8*10(fp)
 427              	# 0 "" 2
 428              		.loc 1 48 17 is_stmt 1
 429              	#NO_APP
 430 017c 6FF09FFB 		j	.L5
 431              	.LVL23:
 432              	.L18:
 433              	.LBE55:
  50:src/riscv.cpp ****                 //MEM FREE
 434              		.loc 1 50 13
  50:src/riscv.cpp ****                 //MEM FREE
 435              		.loc 1 50 24
 436              	.LBB56:
  52:src/riscv.cpp ****                 asm volatile("ld %0, 8*11(fp)": "=r"(arg));
 437              		.loc 1 52 17
GAS LISTING /tmp/ccpiGvb5.s 			page 16


  53:src/riscv.cpp ****                 size_t rez = __mem_free(arg);
 438              		.loc 1 53 17
  53:src/riscv.cpp ****                 size_t rez = __mem_free(arg);
 439              		.loc 1 53 59 is_stmt 0
 440              	#APP
 441              	# 53 "src/riscv.cpp" 1
 442              		ld a0, 8*11(fp)
 443              	# 0 "" 2
 444              	.LVL24:
  54:src/riscv.cpp ****                 asm volatile("sd %0, 8*10(fp)" :: "r"(rez));
 445              		.loc 1 54 17 is_stmt 1
  54:src/riscv.cpp ****                 asm volatile("sd %0, 8*10(fp)" :: "r"(rez));
 446              		.loc 1 54 40 is_stmt 0
 447              	#NO_APP
 448 0184 97000000 		call	__mem_free@plt
 448      E7800000 
 449              	.LVL25:
  55:src/riscv.cpp **** 
 450              		.loc 1 55 17 is_stmt 1
  55:src/riscv.cpp **** 
 451              		.loc 1 55 60 is_stmt 0
 452              	#APP
 453              	# 55 "src/riscv.cpp" 1
  57:src/riscv.cpp ****             }
 454              		sd a0, 8*10(fp)
 455              	# 0 "" 2
 456              		.loc 1 57 17 is_stmt 1
 457              	#NO_APP
 458 0190 6FF05FFA 		j	.L5
 459              	.LVL26:
 460              	.L17:
 461              	.LBE56:
  59:src/riscv.cpp ****                 //THREAD CREATE
 462              		.loc 1 59 13
  59:src/riscv.cpp ****                 //THREAD CREATE
 463              		.loc 1 59 24
 464              	.LBB57:
  62:src/riscv.cpp ****                 void* args;
 465              		.loc 1 62 17
  63:src/riscv.cpp ****                 TCB::Body body;
 466              		.loc 1 63 17
  64:src/riscv.cpp ****                 char* stack;
 467              		.loc 1 64 17
  65:src/riscv.cpp **** 
 468              		.loc 1 65 17
  67:src/riscv.cpp ****                 asm volatile("ld %0, 8*12(fp)" : "=r"(body));
 469              		.loc 1 67 17
  67:src/riscv.cpp ****                 asm volatile("ld %0, 8*12(fp)" : "=r"(body));
 470              		.loc 1 67 63 is_stmt 0
 471              	#APP
 472              	# 67 "src/riscv.cpp" 1
 473              		ld s1, 8*11(fp)
 474              	# 0 "" 2
 475              	.LVL27:
  68:src/riscv.cpp ****                 asm volatile("ld %0, 8*13(fp)" : "=r"(args));
 476              		.loc 1 68 17 is_stmt 1
  68:src/riscv.cpp ****                 asm volatile("ld %0, 8*13(fp)" : "=r"(args));
GAS LISTING /tmp/ccpiGvb5.s 			page 17


 477              		.loc 1 68 61 is_stmt 0
 478              	# 68 "src/riscv.cpp" 1
 479              		ld a0, 8*12(fp)
 480              	# 0 "" 2
 481              	.LVL28:
  69:src/riscv.cpp ****                 asm volatile("ld %0, 8*14(fp)" : "=r"(stack));
 482              		.loc 1 69 17 is_stmt 1
  69:src/riscv.cpp ****                 asm volatile("ld %0, 8*14(fp)" : "=r"(stack));
 483              		.loc 1 69 61 is_stmt 0
 484              	# 69 "src/riscv.cpp" 1
 485              		ld a1, 8*13(fp)
 486              	# 0 "" 2
 487              	.LVL29:
  70:src/riscv.cpp **** 
 488              		.loc 1 70 17 is_stmt 1
  70:src/riscv.cpp **** 
 489              		.loc 1 70 62 is_stmt 0
 490              	# 70 "src/riscv.cpp" 1
 491              		ld a2, 8*14(fp)
 492              	# 0 "" 2
 493              	.LVL30:
  72:src/riscv.cpp ****                 //rez se vraca u a0
 494              		.loc 1 72 17 is_stmt 1
  72:src/riscv.cpp ****                 //rez se vraca u a0
 495              		.loc 1 72 44 is_stmt 0
 496              	#NO_APP
 497 01a4 97000000 		call	_ZN3TCB12createThreadEPFvPvES0_Pc@plt
 497      E7800000 
 498              	.LVL31:
  72:src/riscv.cpp ****                 //rez se vraca u a0
 499              		.loc 1 72 25
 500 01ac 23B0A400 		sd	a0,0(s1)
  74:src/riscv.cpp ****                 if(*handle) rez = 0;
 501              		.loc 1 74 17 is_stmt 1
  75:src/riscv.cpp ****                 else rez = -1;
 502              		.loc 1 75 17
 503 01b0 63080500 		beqz	a0,.L27
  75:src/riscv.cpp ****                 else rez = -1;
 504              		.loc 1 75 33 is_stmt 0
 505 01b4 93070000 		li	a5,0
 506              	.L20:
 507              	.LVL32:
  77:src/riscv.cpp ****                 break;
 508              		.loc 1 77 17 is_stmt 1
  77:src/riscv.cpp ****                 break;
 509              		.loc 1 77 60 is_stmt 0
 510              	#APP
 511              	# 77 "src/riscv.cpp" 1
  78:src/riscv.cpp ****             }
 512              		sd a5, 8*10(fp)
 513              	# 0 "" 2
 514              		.loc 1 78 17 is_stmt 1
 515              	#NO_APP
 516 01bc 6FF09FF7 		j	.L5
 517              	.LVL33:
 518              	.L27:
  76:src/riscv.cpp ****                 asm volatile("sd %0, 8*10(fp)" :: "r"(rez));
GAS LISTING /tmp/ccpiGvb5.s 			page 18


 519              		.loc 1 76 26 is_stmt 0
 520 01c0 9307F0FF 		li	a5,-1
 521 01c4 6FF05FFF 		j	.L20
 522              	.LVL34:
 523              	.L16:
 524              	.LBE57:
  80:src/riscv.cpp ****                 //THREAD EXIT
 525              		.loc 1 80 13 is_stmt 1
  80:src/riscv.cpp ****                 //THREAD EXIT
 526              		.loc 1 80 24
 527              	.LBB58:
  82:src/riscv.cpp ****                 tren->setFinished(true);
 528              		.loc 1 82 17
  82:src/riscv.cpp ****                 tren->setFinished(true);
 529              		.loc 1 82 22 is_stmt 0
 530 01c8 97070000 		la	a5,_ZN3TCB7runningE
 530      83B70700 
 531 01d0 83B40700 		ld	s1,0(a5)
 532              	.LVL35:
  83:src/riscv.cpp ****                 TCB *pret = tren;
 533              		.loc 1 83 17 is_stmt 1
 534              	.LBB59:
 535              	.LBB60:
 536              		.file 3 "src/../h/tcb.hpp"
   1:src/../h/tcb.hpp **** #ifndef OS1_PROJEKAT_TCB_HPP
   2:src/../h/tcb.hpp **** #define OS1_PROJEKAT_TCB_HPP
   3:src/../h/tcb.hpp **** 
   4:src/../h/tcb.hpp **** #include "scheduler.hpp"
   5:src/../h/tcb.hpp **** #include "../lib/hw.h"
   6:src/../h/tcb.hpp **** 
   7:src/../h/tcb.hpp **** class TCB{
   8:src/../h/tcb.hpp **** public:
   9:src/../h/tcb.hpp ****     using Body = void (*)(void*);
  10:src/../h/tcb.hpp ****     //using Body = void (*)();
  11:src/../h/tcb.hpp **** private:
  12:src/../h/tcb.hpp ****     friend class Riscv;
  13:src/../h/tcb.hpp ****     //friend class Sem; a
  14:src/../h/tcb.hpp **** 
  15:src/../h/tcb.hpp ****     TCB(Body body, void* arg, char *stek) :
  16:src/../h/tcb.hpp ****             body(body),
  17:src/../h/tcb.hpp ****             argumentiFje(arg),
  18:src/../h/tcb.hpp ****             stack(body != nullptr ? stek : nullptr),
  19:src/../h/tcb.hpp ****             context({
  20:src/../h/tcb.hpp ****                             (uint64) &threadWrapper,
  21:src/../h/tcb.hpp ****                             stack != nullptr ? (uint64) &stack[DEFAULT_STACK_SIZE] : 0
  22:src/../h/tcb.hpp ****                     }),
  23:src/../h/tcb.hpp ****             finished(false),
  24:src/../h/tcb.hpp ****             active(true)
  25:src/../h/tcb.hpp ****     {
  26:src/../h/tcb.hpp ****         if(body!=nullptr) Scheduler::put(this);
  27:src/../h/tcb.hpp ****     }
  28:src/../h/tcb.hpp **** 
  29:src/../h/tcb.hpp ****     struct Context{
  30:src/../h/tcb.hpp ****         uint64 ra;
  31:src/../h/tcb.hpp ****         uint64 sp;
  32:src/../h/tcb.hpp ****     };  //a
  33:src/../h/tcb.hpp **** 
GAS LISTING /tmp/ccpiGvb5.s 			page 19


  34:src/../h/tcb.hpp ****     Body body;
  35:src/../h/tcb.hpp ****     void* argumentiFje;
  36:src/../h/tcb.hpp ****     char *stack;
  37:src/../h/tcb.hpp ****     Context context;
  38:src/../h/tcb.hpp ****     //uint64 timeSlice;
  39:src/../h/tcb.hpp ****     volatile bool finished;
  40:src/../h/tcb.hpp ****     bool  active;
  41:src/../h/tcb.hpp ****     //static uint64 timeSliceCounter;
  42:src/../h/tcb.hpp ****     static void threadWrapper();
  43:src/../h/tcb.hpp **** 
  44:src/../h/tcb.hpp **** 
  45:src/../h/tcb.hpp **** public:
  46:src/../h/tcb.hpp ****     ~TCB(){ delete[] stack; }
  47:src/../h/tcb.hpp **** 
  48:src/../h/tcb.hpp ****     //static TCB* createNewTCB(Body body, void* args, void* stack);
  49:src/../h/tcb.hpp **** 
  50:src/../h/tcb.hpp ****     bool isFinished() const { return finished; }
  51:src/../h/tcb.hpp ****     void setFinished(bool flag) { finished = flag; }
 537              		.loc 3 51 35
 538              		.loc 3 51 44 is_stmt 0
 539 01d4 93071000 		li	a5,1
 540 01d8 2384F402 		sb	a5,40(s1)
 541              	.LVL36:
 542              	.LBE60:
 543              	.LBE59:
  84:src/riscv.cpp ****                 TCB::dispatch();
 544              		.loc 1 84 17 is_stmt 1
  85:src/riscv.cpp ****                 delete pret;
 545              		.loc 1 85 17
  85:src/riscv.cpp ****                 delete pret;
 546              		.loc 1 85 30 is_stmt 0
 547 01dc 97000000 		call	_ZN3TCB8dispatchEv@plt
 547      E7800000 
 548              	.LVL37:
  86:src/riscv.cpp **** 
 549              		.loc 1 86 17 is_stmt 1
  86:src/riscv.cpp **** 
 550              		.loc 1 86 28 is_stmt 0
 551 01e4 E38804F4 		beqz	s1,.L5
 552              	.LVL38:
 553              	.LBB61:
 554              	.LBB62:
  46:src/../h/tcb.hpp **** 
 555              		.loc 3 46 13 is_stmt 1
  46:src/../h/tcb.hpp **** 
 556              		.loc 3 46 22 is_stmt 0
 557 01e8 03B50401 		ld	a0,16(s1)
  46:src/../h/tcb.hpp **** 
 558              		.loc 3 46 27
 559 01ec 63060500 		beqz	a0,.L21
  46:src/../h/tcb.hpp **** 
 560              		.loc 3 46 22
 561 01f0 97000000 		call	_ZdaPv@plt
 561      E7800000 
 562              	.LVL39:
 563              	.L21:
 564              	.LBE62:
GAS LISTING /tmp/ccpiGvb5.s 			page 20


 565              	.LBE61:
  86:src/riscv.cpp **** 
 566              		.loc 1 86 24
 567 01f8 13850400 		mv	a0,s1
 568 01fc 97000000 		call	_ZdlPv@plt
 568      E7800000 
 569              	.LVL40:
 570 0204 6FF01FF3 		j	.L5
 571              	.LVL41:
 572              	.L15:
 573              	.LBE58:
  90:src/riscv.cpp ****                 //DISPATCH
 574              		.loc 1 90 13 is_stmt 1
  90:src/riscv.cpp ****                 //DISPATCH
 575              		.loc 1 90 24
  92:src/riscv.cpp ****                 break;
 576              		.loc 1 92 17
  92:src/riscv.cpp ****                 break;
 577              		.loc 1 92 30 is_stmt 0
 578 0208 97000000 		call	_ZN3TCB8dispatchEv@plt
 578      E7800000 
 579              	.LVL42:
  93:src/riscv.cpp ****             }
 580              		.loc 1 93 17 is_stmt 1
 581 0210 6FF05FF2 		j	.L5
 582              	.L14:
  95:src/riscv.cpp ****                 //SEM_OPEN
 583              		.loc 1 95 13
  95:src/riscv.cpp ****                 //SEM_OPEN
 584              		.loc 1 95 24
 585              	.LBB63:
  97:src/riscv.cpp ****                 int val;
 586              		.loc 1 97 17
  98:src/riscv.cpp **** 
 587              		.loc 1 98 17
 100:src/riscv.cpp ****                 asm volatile("ld %0, 8*12(fp)" : "=r"(val));
 588              		.loc 1 100 17
 100:src/riscv.cpp ****                 asm volatile("ld %0, 8*12(fp)" : "=r"(val));
 589              		.loc 1 100 63 is_stmt 0
 590              	#APP
 591              	# 100 "src/riscv.cpp" 1
 592              		ld s1, 8*11(fp)
 593              	# 0 "" 2
 594              	.LVL43:
 101:src/riscv.cpp **** 
 595              		.loc 1 101 17 is_stmt 1
 101:src/riscv.cpp **** 
 596              		.loc 1 101 60 is_stmt 0
 597              	# 101 "src/riscv.cpp" 1
 598              		ld a0, 8*12(fp)
 599              	# 0 "" 2
 600              	.LVL44:
 103:src/riscv.cpp ****                 //rez se vraca u a0
 601              		.loc 1 103 17 is_stmt 1
 103:src/riscv.cpp ****                 //rez se vraca u a0
 602              		.loc 1 103 40 is_stmt 0
 603              	#NO_APP
GAS LISTING /tmp/ccpiGvb5.s 			page 21


 604 021c 1B050500 		sext.w	a0,a0
 605 0220 97000000 		call	_ZN3Sem8sem_openEi@plt
 605      E7800000 
 606              	.LVL45:
 103:src/riscv.cpp ****                 //rez se vraca u a0
 607              		.loc 1 103 25
 608 0228 23B0A400 		sd	a0,0(s1)
 105:src/riscv.cpp ****                 if(handle) rez = 0;
 609              		.loc 1 105 17 is_stmt 1
 106:src/riscv.cpp ****                 else rez = -1;
 610              		.loc 1 106 17
 611 022c 63880400 		beqz	s1,.L28
 106:src/riscv.cpp ****                 else rez = -1;
 612              		.loc 1 106 32 is_stmt 0
 613 0230 93070000 		li	a5,0
 614              	.L22:
 615              	.LVL46:
 109:src/riscv.cpp **** 
 616              		.loc 1 109 17 is_stmt 1
 109:src/riscv.cpp **** 
 617              		.loc 1 109 60 is_stmt 0
 618              	#APP
 619              	# 109 "src/riscv.cpp" 1
 111:src/riscv.cpp ****             }
 620              		sd a5, 8*10(fp)
 621              	# 0 "" 2
 622              		.loc 1 111 17 is_stmt 1
 623              	#NO_APP
 624 0238 6FF0DFEF 		j	.L5
 625              	.LVL47:
 626              	.L28:
 107:src/riscv.cpp **** 
 627              		.loc 1 107 26 is_stmt 0
 628 023c 9307F0FF 		li	a5,-1
 629 0240 6FF05FFF 		j	.L22
 630              	.LVL48:
 631              	.L13:
 632              	.LBE63:
 113:src/riscv.cpp ****                 //SEM_CLOSE
 633              		.loc 1 113 13 is_stmt 1
 113:src/riscv.cpp ****                 //SEM_CLOSE
 634              		.loc 1 113 24
 635              	.LBB64:
 115:src/riscv.cpp ****                 asm volatile("ld %0, 8*11(fp)" : "=r"(handle));
 636              		.loc 1 115 17
 116:src/riscv.cpp **** 
 637              		.loc 1 116 17
 116:src/riscv.cpp **** 
 638              		.loc 1 116 63 is_stmt 0
 639              	#APP
 640              	# 116 "src/riscv.cpp" 1
 641              		ld a0, 8*11(fp)
 642              	# 0 "" 2
 643              	.LVL49:
 118:src/riscv.cpp **** 
 644              		.loc 1 118 17 is_stmt 1
 120:src/riscv.cpp **** 
GAS LISTING /tmp/ccpiGvb5.s 			page 22


 645              		.loc 1 120 17
 120:src/riscv.cpp **** 
 646              		.loc 1 120 34 is_stmt 0
 647              	#NO_APP
 648 0248 97000000 		call	_ZN3Sem9sem_closeEv@plt
 648      E7800000 
 649              	.LVL50:
 122:src/riscv.cpp **** 
 650              		.loc 1 122 17 is_stmt 1
 122:src/riscv.cpp **** 
 651              		.loc 1 122 73 is_stmt 0
 652 0250 93070000 		li	a5,0
 653              	#APP
 654              	# 122 "src/riscv.cpp" 1
 124:src/riscv.cpp ****             }
 655              		sd a5, 8*10(fp)
 656              	# 0 "" 2
 657              		.loc 1 124 17 is_stmt 1
 658              	#NO_APP
 659 0258 6FF0DFED 		j	.L5
 660              	.LVL51:
 661              	.L12:
 662              	.LBE64:
 126:src/riscv.cpp ****                 //SEM_WAIT
 663              		.loc 1 126 13
 126:src/riscv.cpp ****                 //SEM_WAIT
 664              		.loc 1 126 24
 665              	.LBB65:
 128:src/riscv.cpp ****                 asm volatile("ld %0, 8*11(fp)" : "=r"(handle));
 666              		.loc 1 128 17
 129:src/riscv.cpp **** 
 667              		.loc 1 129 17
 129:src/riscv.cpp **** 
 668              		.loc 1 129 63 is_stmt 0
 669              	#APP
 670              	# 129 "src/riscv.cpp" 1
 671              		ld a0, 8*11(fp)
 672              	# 0 "" 2
 673              	.LVL52:
 131:src/riscv.cpp ****                 handle->sem_wait();
 674              		.loc 1 131 17 is_stmt 1
 132:src/riscv.cpp **** 
 675              		.loc 1 132 17
 132:src/riscv.cpp **** 
 676              		.loc 1 132 33 is_stmt 0
 677              	#NO_APP
 678 0260 97000000 		call	_ZN3Sem8sem_waitEv@plt
 678      E7800000 
 679              	.LVL53:
 134:src/riscv.cpp **** 
 680              		.loc 1 134 17 is_stmt 1
 134:src/riscv.cpp **** 
 681              		.loc 1 134 73 is_stmt 0
 682 0268 93070000 		li	a5,0
 683              	#APP
 684              	# 134 "src/riscv.cpp" 1
 136:src/riscv.cpp ****             }
GAS LISTING /tmp/ccpiGvb5.s 			page 23


 685              		sd a5, 8*10(fp)
 686              	# 0 "" 2
 687              		.loc 1 136 17 is_stmt 1
 688              	#NO_APP
 689 0270 6FF05FEC 		j	.L5
 690              	.LVL54:
 691              	.L11:
 692              	.LBE65:
 138:src/riscv.cpp ****                 //SEM_SIGNAL
 693              		.loc 1 138 13
 138:src/riscv.cpp ****                 //SEM_SIGNAL
 694              		.loc 1 138 24
 695              	.LBB66:
 140:src/riscv.cpp ****                 asm volatile("ld %0, 8*11(fp)" : "=r"(handle));
 696              		.loc 1 140 17
 141:src/riscv.cpp **** 
 697              		.loc 1 141 17
 141:src/riscv.cpp **** 
 698              		.loc 1 141 63 is_stmt 0
 699              	#APP
 700              	# 141 "src/riscv.cpp" 1
 701              		ld a0, 8*11(fp)
 702              	# 0 "" 2
 703              	.LVL55:
 143:src/riscv.cpp ****                 handle->sem_signal();
 704              		.loc 1 143 17 is_stmt 1
 144:src/riscv.cpp **** 
 705              		.loc 1 144 17
 144:src/riscv.cpp **** 
 706              		.loc 1 144 35 is_stmt 0
 707              	#NO_APP
 708 0278 97000000 		call	_ZN3Sem10sem_signalEv@plt
 708      E7800000 
 709              	.LVL56:
 146:src/riscv.cpp **** 
 710              		.loc 1 146 17 is_stmt 1
 146:src/riscv.cpp **** 
 711              		.loc 1 146 73 is_stmt 0
 712 0280 93070000 		li	a5,0
 713              	#APP
 714              	# 146 "src/riscv.cpp" 1
 148:src/riscv.cpp ****             }
 715              		sd a5, 8*10(fp)
 716              	# 0 "" 2
 717              		.loc 1 148 17 is_stmt 1
 718              	#NO_APP
 719 0288 6FF0DFEA 		j	.L5
 720              	.LVL57:
 721              	.L10:
 722              	.LBE66:
 150:src/riscv.cpp ****                 // sem_timedwait
 723              		.loc 1 150 13
 150:src/riscv.cpp ****                 // sem_timedwait
 724              		.loc 1 150 24
 725              	.LBB67:
 152:src/riscv.cpp ****                 asm volatile("sd %0, 8*10(fp)" :: "r"(rez));
 726              		.loc 1 152 17
GAS LISTING /tmp/ccpiGvb5.s 			page 24


 153:src/riscv.cpp **** 
 727              		.loc 1 153 17
 153:src/riscv.cpp **** 
 728              		.loc 1 153 60 is_stmt 0
 729 028c 9307F0FF 		li	a5,-1
 730              	#APP
 731              	# 153 "src/riscv.cpp" 1
 155:src/riscv.cpp ****             }
 732              		sd a5, 8*10(fp)
 733              	# 0 "" 2
 734              		.loc 1 155 17 is_stmt 1
 735              	#NO_APP
 736 0294 6FF01FEA 		j	.L5
 737              	.LVL58:
 738              	.L9:
 739              	.LBE67:
 157:src/riscv.cpp ****                 // sem_trywait
 740              		.loc 1 157 13
 157:src/riscv.cpp ****                 // sem_trywait
 741              		.loc 1 157 24
 742              	.LBB68:
 159:src/riscv.cpp ****                 asm volatile("ld %0, 8*11(fp)" : "=r"(handle));
 743              		.loc 1 159 17
 160:src/riscv.cpp **** 
 744              		.loc 1 160 17
 160:src/riscv.cpp **** 
 745              		.loc 1 160 63 is_stmt 0
 746              	#APP
 747              	# 160 "src/riscv.cpp" 1
 748              		ld a0, 8*11(fp)
 749              	# 0 "" 2
 750              	.LVL59:
 162:src/riscv.cpp ****                 handle->sem_trywait();
 751              		.loc 1 162 17 is_stmt 1
 163:src/riscv.cpp **** 
 752              		.loc 1 163 17
 163:src/riscv.cpp **** 
 753              		.loc 1 163 36 is_stmt 0
 754              	#NO_APP
 755 029c 97000000 		call	_ZN3Sem11sem_trywaitEv@plt
 755      E7800000 
 756              	.LVL60:
 165:src/riscv.cpp **** 
 757              		.loc 1 165 17 is_stmt 1
 165:src/riscv.cpp **** 
 758              		.loc 1 165 73 is_stmt 0
 759 02a4 93070000 		li	a5,0
 760              	#APP
 761              	# 165 "src/riscv.cpp" 1
 167:src/riscv.cpp ****             }
 762              		sd a5, 8*10(fp)
 763              	# 0 "" 2
 764              		.loc 1 167 17 is_stmt 1
 765              	#NO_APP
 766 02ac 6FF09FE8 		j	.L5
 767              	.LVL61:
 768              	.L31:
GAS LISTING /tmp/ccpiGvb5.s 			page 25


 769              	.LBE68:
 770              	.LBE69:
 771              	.LBE74:
 772              	.LBE75:
 188:src/riscv.cpp ****     } else if (scause == 0x8000000000000009UL) {
 773              		.loc 1 188 9
 774              	.LBB76:
 775              	.LBB77:
 108:src/../h/riscv.hpp **** }
 776              		.loc 2 108 5
 108:src/../h/riscv.hpp **** }
 777              		.loc 2 108 64 is_stmt 0
 778 02b0 93072000 		li	a5,2
 779              	#APP
 780              	# 108 "src/../h/riscv.hpp" 1
 109:src/../h/riscv.hpp **** 
 781              		csrc sip, a5
 782              	# 0 "" 2
 783              		.loc 2 109 1
 784              	#NO_APP
 785 02b8 6FF0DFE8 		j	.L3
 786              	.LVL62:
 787              	.L32:
 788              	.LBE77:
 789              	.LBE76:
 191:src/riscv.cpp ****     } else {
 790              		.loc 1 191 9 is_stmt 1
 191:src/riscv.cpp ****     } else {
 791              		.loc 1 191 24 is_stmt 0
 792 02bc 97000000 		call	console_handler@plt
 792      E7800000 
 793              	.LVL63:
 794 02c4 6FF01FE8 		j	.L3
 795              	.LBE78:
 796              		.cfi_endproc
 797              	.LFE39:
 799              	.Letext0:
 800              		.file 4 "src/../h/../lib/hw.h"
 801              		.file 5 "src/../h/list.hpp"
 802              		.file 6 "src/../h/Semafor.hpp"
 803              		.file 7 "src/../lib/console.h"
 804              		.file 8 "src/../lib/mem.h"
 805              		.file 9 "src/../h/print.hpp"
GAS LISTING /tmp/ccpiGvb5.s 			page 26


DEFINED SYMBOLS
                            *ABS*:0000000000000000 riscv.cpp
     /tmp/ccpiGvb5.s:9      .text:0000000000000000 _ZN5Riscv10popSppSpieEv
     /tmp/ccpiGvb5.s:13     .text:0000000000000000 .L0 
     /tmp/ccpiGvb5.s:14     .text:0000000000000000 .L0 
     /tmp/ccpiGvb5.s:15     .text:0000000000000004 .L0 
     /tmp/ccpiGvb5.s:17     .text:0000000000000008 .L0 
     /tmp/ccpiGvb5.s:19     .text:000000000000000c .L0 
     /tmp/ccpiGvb5.s:25     .text:000000000000000c .L0 
     /tmp/ccpiGvb5.s:26     .text:000000000000000c .L0 
     /tmp/ccpiGvb5.s:27     .text:000000000000000c .L0 
     /tmp/ccpiGvb5.s:37     .text:0000000000000014 .L0 
       src/riscv.cpp:10     .text:0000000000000014 .L0 
     /tmp/ccpiGvb5.s:43     .text:0000000000000018 .L0 
       src/riscv.cpp:11     .text:0000000000000018 .L0 
     /tmp/ccpiGvb5.s:49     .text:000000000000001c .L0 
     /tmp/ccpiGvb5.s:50     .text:0000000000000020 .L0 
     /tmp/ccpiGvb5.s:51     .text:0000000000000020 .L0 
     /tmp/ccpiGvb5.s:53     .text:0000000000000024 .L0 
     /tmp/ccpiGvb5.s:55     .text:0000000000000028 .L0 
     /tmp/ccpiGvb5.s:75     .text:0000000000000028 _ZN5Riscv20handleSupervisorTrapEv
     /tmp/ccpiGvb5.s:78     .text:0000000000000028 .L0 
     /tmp/ccpiGvb5.s:79     .text:0000000000000028 .L0 
     /tmp/ccpiGvb5.s:80     .text:000000000000002c .L0 
     /tmp/ccpiGvb5.s:84     .text:0000000000000038 .L0 
     /tmp/ccpiGvb5.s:85     .text:0000000000000038 .L0 
     /tmp/ccpiGvb5.s:86     .text:0000000000000038 .L0 
     /tmp/ccpiGvb5.s:88     .text:000000000000003c .L0 
     /tmp/ccpiGvb5.s:92     .text:000000000000003c .L0 
     /tmp/ccpiGvb5.s:93     .text:000000000000003c .L0 
     /tmp/ccpiGvb5.s:94     .text:000000000000003c .L0 
  src/../h/riscv.hpp:65     .text:000000000000003c .L0 
     /tmp/ccpiGvb5.s:102    .text:0000000000000044 .L0 
     /tmp/ccpiGvb5.s:103    .text:0000000000000044 .L0 
     /tmp/ccpiGvb5.s:109    .text:0000000000000048 .L0 
     /tmp/ccpiGvb5.s:110    .text:0000000000000048 .L0 
     /tmp/ccpiGvb5.s:112    .text:000000000000004c .L0 
     /tmp/ccpiGvb5.s:115    .text:0000000000000054 .L0 
     /tmp/ccpiGvb5.s:120    .text:0000000000000064 .L0 
     /tmp/ccpiGvb5.s:125    .text:0000000000000074 .L0 
     /tmp/ccpiGvb5.s:126    .text:0000000000000074 .L0 
     /tmp/ccpiGvb5.s:130    .text:0000000000000084 .L0 
     /tmp/ccpiGvb5.s:131    .text:0000000000000084 .L0 
     /tmp/ccpiGvb5.s:135    .text:0000000000000094 .L0 
     /tmp/ccpiGvb5.s:136    .text:0000000000000094 .L0 
     /tmp/ccpiGvb5.s:140    .text:00000000000000a4 .L0 
     /tmp/ccpiGvb5.s:141    .text:00000000000000a4 .L0 
     /tmp/ccpiGvb5.s:145    .text:00000000000000b0 .L0 
     /tmp/ccpiGvb5.s:146    .text:00000000000000b0 .L0 
     /tmp/ccpiGvb5.s:152    .text:00000000000000c0 .L0 
     /tmp/ccpiGvb5.s:153    .text:00000000000000c0 .L0 
     /tmp/ccpiGvb5.s:154    .text:00000000000000c0 .L0 
  src/../h/riscv.hpp:75     .text:00000000000000c0 .L0 
     /tmp/ccpiGvb5.s:162    .text:00000000000000c8 .L0 
     /tmp/ccpiGvb5.s:163    .text:00000000000000c8 .L0 
     /tmp/ccpiGvb5.s:167    .text:00000000000000cc .L0 
     /tmp/ccpiGvb5.s:171    .text:00000000000000d4 .L0 
GAS LISTING /tmp/ccpiGvb5.s 			page 27


     /tmp/ccpiGvb5.s:172    .text:00000000000000d4 .L0 
     /tmp/ccpiGvb5.s:178    .text:00000000000000d8 .L0 
     /tmp/ccpiGvb5.s:179    .text:00000000000000d8 .L0 
     /tmp/ccpiGvb5.s:180    .text:00000000000000d8 .L0 
  src/../h/riscv.hpp:75     .text:00000000000000d8 .L0 
     /tmp/ccpiGvb5.s:188    .text:00000000000000e0 .L0 
     /tmp/ccpiGvb5.s:189    .text:00000000000000e0 .L0 
     /tmp/ccpiGvb5.s:193    .text:00000000000000e4 .L0 
     /tmp/ccpiGvb5.s:195    .text:00000000000000e8 .L0 
     /tmp/ccpiGvb5.s:199    .text:00000000000000ec .L0 
     /tmp/ccpiGvb5.s:200    .text:00000000000000ec .L0 
     /tmp/ccpiGvb5.s:201    .text:00000000000000ec .L0 
  src/../h/riscv.hpp:131    .text:00000000000000ec .L0 
     /tmp/ccpiGvb5.s:209    .text:00000000000000f4 .L0 
     /tmp/ccpiGvb5.s:210    .text:00000000000000f4 .L0 
     /tmp/ccpiGvb5.s:214    .text:00000000000000f8 .L0 
     /tmp/ccpiGvb5.s:216    .text:00000000000000fc .L0 
     /tmp/ccpiGvb5.s:217    .text:00000000000000fc .L0 
       src/riscv.cpp:23     .text:00000000000000fc .L0 
     /tmp/ccpiGvb5.s:225    .text:0000000000000100 .L0 
     /tmp/ccpiGvb5.s:310    .text:0000000000000124 .L0 
     /tmp/ccpiGvb5.s:312    .text:0000000000000124 .L0 
     /tmp/ccpiGvb5.s:313    .text:0000000000000124 .L0 
     /tmp/ccpiGvb5.s:314    .text:0000000000000124 .L0 
       src/riscv.cpp:28     .text:0000000000000124 .L0 
     /tmp/ccpiGvb5.s:321    .text:0000000000000128 .L0 
     /tmp/ccpiGvb5.s:323    .text:0000000000000128 .L0 
     /tmp/ccpiGvb5.s:331    .text:0000000000000134 .L0 
     /tmp/ccpiGvb5.s:332    .text:0000000000000134 .L0 
     /tmp/ccpiGvb5.s:333    .text:0000000000000134 .L0 
     /tmp/ccpiGvb5.s:338    .text:0000000000000138 .L0 
  src/../h/riscv.hpp:136    .text:0000000000000138 .L0 
     /tmp/ccpiGvb5.s:348    .text:000000000000013c .L0 
     /tmp/ccpiGvb5.s:349    .text:000000000000013c .L0 
     /tmp/ccpiGvb5.s:354    .text:0000000000000140 .L0 
  src/../h/riscv.hpp:80     .text:0000000000000140 .L0 
     /tmp/ccpiGvb5.s:367    .text:0000000000000144 .L0 
     /tmp/ccpiGvb5.s:368    .text:0000000000000148 .L0 
     /tmp/ccpiGvb5.s:369    .text:0000000000000148 .L0 
     /tmp/ccpiGvb5.s:371    .text:000000000000014c .L0 
     /tmp/ccpiGvb5.s:372    .text:000000000000014c .L0 
     /tmp/ccpiGvb5.s:374    .text:0000000000000150 .L0 
     /tmp/ccpiGvb5.s:376    .text:0000000000000154 .L0 
     /tmp/ccpiGvb5.s:380    .text:0000000000000158 .L0 
     /tmp/ccpiGvb5.s:386    .text:0000000000000158 .L0 
     /tmp/ccpiGvb5.s:388    .text:0000000000000158 .L0 
     /tmp/ccpiGvb5.s:389    .text:0000000000000158 .L0 
     /tmp/ccpiGvb5.s:390    .text:0000000000000158 .L0 
     /tmp/ccpiGvb5.s:393    .text:0000000000000160 .L0 
       src/riscv.cpp:37     .text:0000000000000160 .L0 
     /tmp/ccpiGvb5.s:400    .text:0000000000000164 .L0 
     /tmp/ccpiGvb5.s:405    .text:0000000000000168 .L0 
     /tmp/ccpiGvb5.s:407    .text:0000000000000168 .L0 
     /tmp/ccpiGvb5.s:408    .text:0000000000000168 .L0 
     /tmp/ccpiGvb5.s:409    .text:0000000000000168 .L0 
       src/riscv.cpp:44     .text:0000000000000168 .L0 
     /tmp/ccpiGvb5.s:416    .text:000000000000016c .L0 
GAS LISTING /tmp/ccpiGvb5.s 			page 28


     /tmp/ccpiGvb5.s:418    .text:000000000000016c .L0 
     /tmp/ccpiGvb5.s:423    .text:0000000000000178 .L0 
       src/riscv.cpp:46     .text:0000000000000178 .L0 
     /tmp/ccpiGvb5.s:430    .text:000000000000017c .L0 
     /tmp/ccpiGvb5.s:435    .text:0000000000000180 .L0 
     /tmp/ccpiGvb5.s:437    .text:0000000000000180 .L0 
     /tmp/ccpiGvb5.s:438    .text:0000000000000180 .L0 
     /tmp/ccpiGvb5.s:439    .text:0000000000000180 .L0 
       src/riscv.cpp:53     .text:0000000000000180 .L0 
     /tmp/ccpiGvb5.s:446    .text:0000000000000184 .L0 
     /tmp/ccpiGvb5.s:448    .text:0000000000000184 .L0 
     /tmp/ccpiGvb5.s:451    .text:000000000000018c .L0 
       src/riscv.cpp:55     .text:000000000000018c .L0 
     /tmp/ccpiGvb5.s:458    .text:0000000000000190 .L0 
     /tmp/ccpiGvb5.s:463    .text:0000000000000194 .L0 
     /tmp/ccpiGvb5.s:465    .text:0000000000000194 .L0 
     /tmp/ccpiGvb5.s:466    .text:0000000000000194 .L0 
     /tmp/ccpiGvb5.s:467    .text:0000000000000194 .L0 
     /tmp/ccpiGvb5.s:468    .text:0000000000000194 .L0 
     /tmp/ccpiGvb5.s:469    .text:0000000000000194 .L0 
     /tmp/ccpiGvb5.s:470    .text:0000000000000194 .L0 
       src/riscv.cpp:67     .text:0000000000000194 .L0 
     /tmp/ccpiGvb5.s:477    .text:0000000000000198 .L0 
       src/riscv.cpp:68     .text:0000000000000198 .L0 
     /tmp/ccpiGvb5.s:483    .text:000000000000019c .L0 
       src/riscv.cpp:69     .text:000000000000019c .L0 
     /tmp/ccpiGvb5.s:489    .text:00000000000001a0 .L0 
       src/riscv.cpp:70     .text:00000000000001a0 .L0 
     /tmp/ccpiGvb5.s:495    .text:00000000000001a4 .L0 
     /tmp/ccpiGvb5.s:497    .text:00000000000001a4 .L0 
     /tmp/ccpiGvb5.s:500    .text:00000000000001ac .L0 
     /tmp/ccpiGvb5.s:502    .text:00000000000001b0 .L0 
     /tmp/ccpiGvb5.s:503    .text:00000000000001b0 .L0 
     /tmp/ccpiGvb5.s:505    .text:00000000000001b4 .L0 
     /tmp/ccpiGvb5.s:509    .text:00000000000001b8 .L0 
       src/riscv.cpp:77     .text:00000000000001b8 .L0 
     /tmp/ccpiGvb5.s:516    .text:00000000000001bc .L0 
     /tmp/ccpiGvb5.s:520    .text:00000000000001c0 .L0 
     /tmp/ccpiGvb5.s:526    .text:00000000000001c8 .L0 
     /tmp/ccpiGvb5.s:528    .text:00000000000001c8 .L0 
     /tmp/ccpiGvb5.s:529    .text:00000000000001c8 .L0 
     /tmp/ccpiGvb5.s:530    .text:00000000000001c8 .L0 
     /tmp/ccpiGvb5.s:537    .text:00000000000001d4 .L0 
     /tmp/ccpiGvb5.s:538    .text:00000000000001d4 .L0 
     /tmp/ccpiGvb5.s:539    .text:00000000000001d4 .L0 
     /tmp/ccpiGvb5.s:545    .text:00000000000001dc .L0 
     /tmp/ccpiGvb5.s:546    .text:00000000000001dc .L0 
     /tmp/ccpiGvb5.s:547    .text:00000000000001dc .L0 
     /tmp/ccpiGvb5.s:550    .text:00000000000001e4 .L0 
     /tmp/ccpiGvb5.s:551    .text:00000000000001e4 .L0 
     /tmp/ccpiGvb5.s:556    .text:00000000000001e8 .L0 
     /tmp/ccpiGvb5.s:557    .text:00000000000001e8 .L0 
     /tmp/ccpiGvb5.s:559    .text:00000000000001ec .L0 
     /tmp/ccpiGvb5.s:561    .text:00000000000001f0 .L0 
     /tmp/ccpiGvb5.s:567    .text:00000000000001f8 .L0 
     /tmp/ccpiGvb5.s:575    .text:0000000000000208 .L0 
     /tmp/ccpiGvb5.s:576    .text:0000000000000208 .L0 
GAS LISTING /tmp/ccpiGvb5.s 			page 29


     /tmp/ccpiGvb5.s:577    .text:0000000000000208 .L0 
     /tmp/ccpiGvb5.s:578    .text:0000000000000208 .L0 
     /tmp/ccpiGvb5.s:581    .text:0000000000000210 .L0 
     /tmp/ccpiGvb5.s:584    .text:0000000000000214 .L0 
     /tmp/ccpiGvb5.s:586    .text:0000000000000214 .L0 
     /tmp/ccpiGvb5.s:587    .text:0000000000000214 .L0 
     /tmp/ccpiGvb5.s:588    .text:0000000000000214 .L0 
     /tmp/ccpiGvb5.s:589    .text:0000000000000214 .L0 
       src/riscv.cpp:100    .text:0000000000000214 .L0 
     /tmp/ccpiGvb5.s:596    .text:0000000000000218 .L0 
       src/riscv.cpp:101    .text:0000000000000218 .L0 
     /tmp/ccpiGvb5.s:602    .text:000000000000021c .L0 
     /tmp/ccpiGvb5.s:604    .text:000000000000021c .L0 
     /tmp/ccpiGvb5.s:608    .text:0000000000000228 .L0 
     /tmp/ccpiGvb5.s:610    .text:000000000000022c .L0 
     /tmp/ccpiGvb5.s:611    .text:000000000000022c .L0 
     /tmp/ccpiGvb5.s:613    .text:0000000000000230 .L0 
     /tmp/ccpiGvb5.s:617    .text:0000000000000234 .L0 
       src/riscv.cpp:109    .text:0000000000000234 .L0 
     /tmp/ccpiGvb5.s:624    .text:0000000000000238 .L0 
     /tmp/ccpiGvb5.s:628    .text:000000000000023c .L0 
     /tmp/ccpiGvb5.s:634    .text:0000000000000244 .L0 
     /tmp/ccpiGvb5.s:636    .text:0000000000000244 .L0 
     /tmp/ccpiGvb5.s:637    .text:0000000000000244 .L0 
     /tmp/ccpiGvb5.s:638    .text:0000000000000244 .L0 
       src/riscv.cpp:116    .text:0000000000000244 .L0 
     /tmp/ccpiGvb5.s:645    .text:0000000000000248 .L0 
     /tmp/ccpiGvb5.s:646    .text:0000000000000248 .L0 
     /tmp/ccpiGvb5.s:648    .text:0000000000000248 .L0 
     /tmp/ccpiGvb5.s:651    .text:0000000000000250 .L0 
     /tmp/ccpiGvb5.s:652    .text:0000000000000250 .L0 
     /tmp/ccpiGvb5.s:659    .text:0000000000000258 .L0 
     /tmp/ccpiGvb5.s:664    .text:000000000000025c .L0 
     /tmp/ccpiGvb5.s:666    .text:000000000000025c .L0 
     /tmp/ccpiGvb5.s:667    .text:000000000000025c .L0 
     /tmp/ccpiGvb5.s:668    .text:000000000000025c .L0 
       src/riscv.cpp:129    .text:000000000000025c .L0 
     /tmp/ccpiGvb5.s:675    .text:0000000000000260 .L0 
     /tmp/ccpiGvb5.s:676    .text:0000000000000260 .L0 
     /tmp/ccpiGvb5.s:678    .text:0000000000000260 .L0 
     /tmp/ccpiGvb5.s:681    .text:0000000000000268 .L0 
     /tmp/ccpiGvb5.s:682    .text:0000000000000268 .L0 
     /tmp/ccpiGvb5.s:689    .text:0000000000000270 .L0 
     /tmp/ccpiGvb5.s:694    .text:0000000000000274 .L0 
     /tmp/ccpiGvb5.s:696    .text:0000000000000274 .L0 
     /tmp/ccpiGvb5.s:697    .text:0000000000000274 .L0 
     /tmp/ccpiGvb5.s:698    .text:0000000000000274 .L0 
       src/riscv.cpp:141    .text:0000000000000274 .L0 
     /tmp/ccpiGvb5.s:705    .text:0000000000000278 .L0 
     /tmp/ccpiGvb5.s:706    .text:0000000000000278 .L0 
     /tmp/ccpiGvb5.s:708    .text:0000000000000278 .L0 
     /tmp/ccpiGvb5.s:711    .text:0000000000000280 .L0 
     /tmp/ccpiGvb5.s:712    .text:0000000000000280 .L0 
     /tmp/ccpiGvb5.s:719    .text:0000000000000288 .L0 
     /tmp/ccpiGvb5.s:724    .text:000000000000028c .L0 
     /tmp/ccpiGvb5.s:726    .text:000000000000028c .L0 
     /tmp/ccpiGvb5.s:727    .text:000000000000028c .L0 
GAS LISTING /tmp/ccpiGvb5.s 			page 30


     /tmp/ccpiGvb5.s:728    .text:000000000000028c .L0 
     /tmp/ccpiGvb5.s:729    .text:000000000000028c .L0 
     /tmp/ccpiGvb5.s:736    .text:0000000000000294 .L0 
     /tmp/ccpiGvb5.s:741    .text:0000000000000298 .L0 
     /tmp/ccpiGvb5.s:743    .text:0000000000000298 .L0 
     /tmp/ccpiGvb5.s:744    .text:0000000000000298 .L0 
     /tmp/ccpiGvb5.s:745    .text:0000000000000298 .L0 
       src/riscv.cpp:160    .text:0000000000000298 .L0 
     /tmp/ccpiGvb5.s:752    .text:000000000000029c .L0 
     /tmp/ccpiGvb5.s:753    .text:000000000000029c .L0 
     /tmp/ccpiGvb5.s:755    .text:000000000000029c .L0 
     /tmp/ccpiGvb5.s:758    .text:00000000000002a4 .L0 
     /tmp/ccpiGvb5.s:759    .text:00000000000002a4 .L0 
     /tmp/ccpiGvb5.s:766    .text:00000000000002ac .L0 
     /tmp/ccpiGvb5.s:776    .text:00000000000002b0 .L0 
     /tmp/ccpiGvb5.s:777    .text:00000000000002b0 .L0 
     /tmp/ccpiGvb5.s:778    .text:00000000000002b0 .L0 
     /tmp/ccpiGvb5.s:785    .text:00000000000002b8 .L0 
     /tmp/ccpiGvb5.s:791    .text:00000000000002bc .L0 
     /tmp/ccpiGvb5.s:792    .text:00000000000002bc .L0 
     /tmp/ccpiGvb5.s:796    .text:00000000000002c8 .L0 
     /tmp/ccpiGvb5.s:806    .text:00000000000002c8 .L0 
     /tmp/ccpiGvb5.s:60     .rodata.str1.8:0000000000000000 .LC0
     /tmp/ccpiGvb5.s:126    .text:0000000000000074 .L0 
     /tmp/ccpiGvb5.s:63     .rodata.str1.8:0000000000000008 .LC1
     /tmp/ccpiGvb5.s:131    .text:0000000000000084 .L0 
     /tmp/ccpiGvb5.s:66     .rodata.str1.8:0000000000000020 .LC2
     /tmp/ccpiGvb5.s:136    .text:0000000000000094 .L0 
     /tmp/ccpiGvb5.s:69     .rodata.str1.8:0000000000000030 .LC3
     /tmp/ccpiGvb5.s:146    .text:00000000000000b0 .L0 
     /tmp/ccpiGvb5.s:237    .rodata:0000000000000000 .L7
     /tmp/ccpiGvb5.s:229    .text:000000000000010c .L0 
     /tmp/ccpiGvb5.s:530    .text:00000000000001c8 .L0 
     /tmp/ccpiGvb5.s:173    .text:00000000000000d8 .L30
     /tmp/ccpiGvb5.s:768    .text:00000000000002b0 .L31
     /tmp/ccpiGvb5.s:787    .text:00000000000002bc .L32
     /tmp/ccpiGvb5.s:169    .text:00000000000000d4 .L26
     /tmp/ccpiGvb5.s:327    .text:0000000000000134 .L5
     /tmp/ccpiGvb5.s:518    .text:00000000000001c0 .L27
     /tmp/ccpiGvb5.s:506    .text:00000000000001b8 .L20
     /tmp/ccpiGvb5.s:563    .text:00000000000001f8 .L21
     /tmp/ccpiGvb5.s:626    .text:000000000000023c .L28
     /tmp/ccpiGvb5.s:614    .text:0000000000000234 .L22
     /tmp/ccpiGvb5.s:361    .text:0000000000000144 .L3
     /tmp/ccpiGvb5.s:402    .text:0000000000000168 .L19
     /tmp/ccpiGvb5.s:432    .text:0000000000000180 .L18
     /tmp/ccpiGvb5.s:460    .text:0000000000000194 .L17
     /tmp/ccpiGvb5.s:523    .text:00000000000001c8 .L16
     /tmp/ccpiGvb5.s:572    .text:0000000000000208 .L15
     /tmp/ccpiGvb5.s:582    .text:0000000000000214 .L14
     /tmp/ccpiGvb5.s:631    .text:0000000000000244 .L13
     /tmp/ccpiGvb5.s:661    .text:000000000000025c .L12
     /tmp/ccpiGvb5.s:691    .text:0000000000000274 .L11
     /tmp/ccpiGvb5.s:721    .text:000000000000028c .L10
     /tmp/ccpiGvb5.s:738    .text:0000000000000298 .L9
     /tmp/ccpiGvb5.s:379    .text:0000000000000158 .L8
     /tmp/ccpiGvb5.s:306    .text:0000000000000124 .L6
GAS LISTING /tmp/ccpiGvb5.s 			page 31


     /tmp/ccpiGvb5.s:2423   .debug_abbrev:0000000000000000 .Ldebug_abbrev0
     /tmp/ccpiGvb5.s:3960   .debug_str:000000000000076a .LASF156
     /tmp/ccpiGvb5.s:3902   .debug_str:00000000000005f0 .LASF157
     /tmp/ccpiGvb5.s:4014   .debug_str:00000000000009b6 .LASF158
     /tmp/ccpiGvb5.s:5      .text:0000000000000000 .Ltext0
     /tmp/ccpiGvb5.s:799    .text:00000000000002c8 .Letext0
     /tmp/ccpiGvb5.s:3680   .debug_line:0000000000000000 .Ldebug_line0
     /tmp/ccpiGvb5.s:3878   .debug_str:0000000000000564 .LASF0
     /tmp/ccpiGvb5.s:3898   .debug_str:00000000000005ca .LASF1
     /tmp/ccpiGvb5.s:3860   .debug_str:00000000000004e2 .LASF2
     /tmp/ccpiGvb5.s:3818   .debug_str:00000000000003cb .LASF4
     /tmp/ccpiGvb5.s:3936   .debug_str:00000000000006c9 .LASF3
     /tmp/ccpiGvb5.s:3714   .debug_str:00000000000000db .LASF5
     /tmp/ccpiGvb5.s:3900   .debug_str:00000000000005dd .LASF6
     /tmp/ccpiGvb5.s:3876   .debug_str:0000000000000551 .LASF7
     /tmp/ccpiGvb5.s:3972   .debug_str:0000000000000874 .LASF8
     /tmp/ccpiGvb5.s:3796   .debug_str:0000000000000321 .LASF9
     /tmp/ccpiGvb5.s:3908   .debug_str:0000000000000613 .LASF10
     /tmp/ccpiGvb5.s:3966   .debug_str:000000000000084e .LASF11
     /tmp/ccpiGvb5.s:3720   .debug_str:00000000000000ff .LASF12
     /tmp/ccpiGvb5.s:3690   .debug_str:000000000000004e .LASF13
     /tmp/ccpiGvb5.s:3730   .debug_str:0000000000000153 .LASF14
     /tmp/ccpiGvb5.s:3926   .debug_str:000000000000067c .LASF15
     /tmp/ccpiGvb5.s:3748   .debug_str:00000000000001a8 .LASF16
     /tmp/ccpiGvb5.s:3894   .debug_str:00000000000005b9 .LASF65
     /tmp/ccpiGvb5.s:3836   .debug_str:0000000000000458 .LASF20
     /tmp/ccpiGvb5.s:3946   .debug_str:000000000000070b .LASF17
     /tmp/ccpiGvb5.s:3892   .debug_str:00000000000005b0 .LASF18
     /tmp/ccpiGvb5.s:3828   .debug_str:000000000000040a .LASF19
     /tmp/ccpiGvb5.s:3752   .debug_str:00000000000001d2 .LASF21
     /tmp/ccpiGvb5.s:3744   .debug_str:000000000000018f .LASF22
     /tmp/ccpiGvb5.s:4006   .debug_str:000000000000097f .LASF23
     /tmp/ccpiGvb5.s:3716   .debug_str:00000000000000e2 .LASF24
     /tmp/ccpiGvb5.s:3922   .debug_str:000000000000066a .LASF25
     /tmp/ccpiGvb5.s:4002   .debug_str:0000000000000962 .LASF27
     /tmp/ccpiGvb5.s:3710   .debug_str:00000000000000c5 .LASF26
     /tmp/ccpiGvb5.s:3768   .debug_str:000000000000025a .LASF28
     /tmp/ccpiGvb5.s:3948   .debug_str:0000000000000714 .LASF29
     /tmp/ccpiGvb5.s:3688   .debug_str:0000000000000034 .LASF30
     /tmp/ccpiGvb5.s:3692   .debug_str:000000000000005e .LASF31
     /tmp/ccpiGvb5.s:3772   .debug_str:000000000000027d .LASF33
     /tmp/ccpiGvb5.s:3764   .debug_str:000000000000024b .LASF35
     /tmp/ccpiGvb5.s:3762   .debug_str:0000000000000236 .LASF37
     /tmp/ccpiGvb5.s:3938   .debug_str:00000000000006db .LASF32
     /tmp/ccpiGvb5.s:3912   .debug_str:0000000000000628 .LASF34
     /tmp/ccpiGvb5.s:3958   .debug_str:0000000000000763 .LASF36
     /tmp/ccpiGvb5.s:3952   .debug_str:000000000000072b .LASF38
     /tmp/ccpiGvb5.s:3784   .debug_str:00000000000002e4 .LASF39
     /tmp/ccpiGvb5.s:3750   .debug_str:00000000000001be .LASF40
     /tmp/ccpiGvb5.s:3684   .debug_str:000000000000000e .LASF41
     /tmp/ccpiGvb5.s:3804   .debug_str:0000000000000357 .LASF42
     /tmp/ccpiGvb5.s:3712   .debug_str:00000000000000d3 .LASF43
     /tmp/ccpiGvb5.s:3722   .debug_str:000000000000010f .LASF44
     /tmp/ccpiGvb5.s:4010   .debug_str:0000000000000997 .LASF45
     /tmp/ccpiGvb5.s:3774   .debug_str:0000000000000292 .LASF46
     /tmp/ccpiGvb5.s:3880   .debug_str:0000000000000571 .LASF47
     /tmp/ccpiGvb5.s:4000   .debug_str:000000000000094f .LASF48
GAS LISTING /tmp/ccpiGvb5.s 			page 32


     /tmp/ccpiGvb5.s:3706   .debug_str:00000000000000b5 .LASF49
     /tmp/ccpiGvb5.s:3782   .debug_str:00000000000002d1 .LASF50
     /tmp/ccpiGvb5.s:3790   .debug_str:000000000000030b .LASF51
     /tmp/ccpiGvb5.s:3956   .debug_str:0000000000000751 .LASF52
     /tmp/ccpiGvb5.s:3702   .debug_str:0000000000000092 .LASF53
     /tmp/ccpiGvb5.s:4016   .debug_str:00000000000009e0 .LASF54
     /tmp/ccpiGvb5.s:4008   .debug_str:000000000000098c .LASF55
     /tmp/ccpiGvb5.s:3932   .debug_str:00000000000006aa .LASF56
     /tmp/ccpiGvb5.s:3896   .debug_str:00000000000005bf .LASF57
     /tmp/ccpiGvb5.s:3844   .debug_str:000000000000048a .LASF58
     /tmp/ccpiGvb5.s:3728   .debug_str:0000000000000149 .LASF59
     /tmp/ccpiGvb5.s:3812   .debug_str:0000000000000388 .LASF60
     /tmp/ccpiGvb5.s:3868   .debug_str:000000000000050c .LASF61
     /tmp/ccpiGvb5.s:3800   .debug_str:000000000000033c .LASF62
     /tmp/ccpiGvb5.s:3942   .debug_str:00000000000006ec .LASF63
     /tmp/ccpiGvb5.s:3724   .debug_str:0000000000000123 .LASF64
     /tmp/ccpiGvb5.s:3980   .debug_str:00000000000008b0 .LASF90
     /tmp/ccpiGvb5.s:3832   .debug_str:000000000000041b .LASF92
     /tmp/ccpiGvb5.s:3846   .debug_str:00000000000004a2 .LASF66
     /tmp/ccpiGvb5.s:3848   .debug_str:00000000000004ac .LASF159
     /tmp/ccpiGvb5.s:3754   .debug_str:00000000000001e1 .LASF67
     /tmp/ccpiGvb5.s:3852   .debug_str:00000000000004c5 .LASF68
     /tmp/ccpiGvb5.s:3816   .debug_str:00000000000003c6 .LASF69
     /tmp/ccpiGvb5.s:3884   .debug_str:0000000000000581 .LASF71
     /tmp/ccpiGvb5.s:3820   .debug_str:00000000000003d2 .LASF76
     /tmp/ccpiGvb5.s:3708   .debug_str:00000000000000bc .LASF70
     /tmp/ccpiGvb5.s:3760   .debug_str:0000000000000219 .LASF72
     /tmp/ccpiGvb5.s:3794   .debug_str:0000000000000319 .LASF73
     /tmp/ccpiGvb5.s:3758   .debug_str:00000000000001fd .LASF74
     /tmp/ccpiGvb5.s:3962   .debug_str:000000000000082e .LASF75
     /tmp/ccpiGvb5.s:3686   .debug_str:0000000000000016 .LASF77
     /tmp/ccpiGvb5.s:3726   .debug_str:000000000000013f .LASF78
     /tmp/ccpiGvb5.s:3834   .debug_str:000000000000043d .LASF79
     /tmp/ccpiGvb5.s:3888   .debug_str:0000000000000599 .LASF80
     /tmp/ccpiGvb5.s:3704   .debug_str:0000000000000098 .LASF81
     /tmp/ccpiGvb5.s:3838   .debug_str:0000000000000463 .LASF82
     /tmp/ccpiGvb5.s:3998   .debug_str:0000000000000935 .LASF83
     /tmp/ccpiGvb5.s:3698   .debug_str:0000000000000078 .LASF160
     /tmp/ccpiGvb5.s:3988   .debug_str:00000000000008f1 .LASF161
     /tmp/ccpiGvb5.s:3918   .debug_str:000000000000064f .LASF162
     /tmp/ccpiGvb5.s:3826   .debug_str:0000000000000405 .LASF84
     /tmp/ccpiGvb5.s:3930   .debug_str:000000000000069d .LASF85
     /tmp/ccpiGvb5.s:3734   .debug_str:0000000000000164 .LASF86
     /tmp/ccpiGvb5.s:3830   .debug_str:0000000000000413 .LASF87
     /tmp/ccpiGvb5.s:3824   .debug_str:00000000000003fc .LASF88
     /tmp/ccpiGvb5.s:3740   .debug_str:0000000000000183 .LASF89
     /tmp/ccpiGvb5.s:3840   .debug_str:000000000000046c .LASF91
     /tmp/ccpiGvb5.s:3986   .debug_str:00000000000008d8 .LASF93
     /tmp/ccpiGvb5.s:3808   .debug_str:0000000000000370 .LASF94
     /tmp/ccpiGvb5.s:3914   .debug_str:000000000000063b .LASF95
     /tmp/ccpiGvb5.s:3904   .debug_str:00000000000005fe .LASF96
     /tmp/ccpiGvb5.s:3974   .debug_str:0000000000000884 .LASF97
     /tmp/ccpiGvb5.s:3862   .debug_str:00000000000004f0 .LASF98
     /tmp/ccpiGvb5.s:4012   .debug_str:000000000000099f .LASF99
     /tmp/ccpiGvb5.s:3696   .debug_str:000000000000006e .LASF100
     /tmp/ccpiGvb5.s:3788   .debug_str:00000000000002f6 .LASF101
     /tmp/ccpiGvb5.s:3854   .debug_str:00000000000004ca .LASF102
GAS LISTING /tmp/ccpiGvb5.s 			page 33


     /tmp/ccpiGvb5.s:3964   .debug_str:000000000000083a .LASF103
     /tmp/ccpiGvb5.s:3746   .debug_str:000000000000019b .LASF104
     /tmp/ccpiGvb5.s:3870   .debug_str:0000000000000516 .LASF105
     /tmp/ccpiGvb5.s:3770   .debug_str:0000000000000275 .LASF163
     /tmp/ccpiGvb5.s:3882   .debug_str:0000000000000578 .LASF106
     /tmp/ccpiGvb5.s:3776   .debug_str:00000000000002a6 .LASF107
     /tmp/ccpiGvb5.s:3984   .debug_str:00000000000008ca .LASF164
     /tmp/ccpiGvb5.s:3814   .debug_str:000000000000039e .LASF165
     /tmp/ccpiGvb5.s:3806   .debug_str:000000000000036b .LASF108
     /tmp/ccpiGvb5.s:3778   .debug_str:00000000000002b9 .LASF109
     /tmp/ccpiGvb5.s:3910   .debug_str:0000000000000622 .LASF110
     /tmp/ccpiGvb5.s:3906   .debug_str:0000000000000609 .LASF111
     /tmp/ccpiGvb5.s:3890   .debug_str:00000000000005a4 .LASF166
     /tmp/ccpiGvb5.s:3990   .debug_str:0000000000000907 .LASF112
     /tmp/ccpiGvb5.s:3996   .debug_str:0000000000000921 .LASF113
     /tmp/ccpiGvb5.s:3978   .debug_str:00000000000008a7 .LASF114
     /tmp/ccpiGvb5.s:3780   .debug_str:00000000000002be .LASF115
     /tmp/ccpiGvb5.s:3950   .debug_str:0000000000000721 .LASF116
     /tmp/ccpiGvb5.s:3874   .debug_str:000000000000053d .LASF117
     /tmp/ccpiGvb5.s:3736   .debug_str:000000000000016a .LASF118
     /tmp/ccpiGvb5.s:3810   .debug_str:0000000000000375 .LASF119
     /tmp/ccpiGvb5.s:3970   .debug_str:0000000000000869 .LASF120
     /tmp/ccpiGvb5.s:3920   .debug_str:0000000000000654 .LASF121
     /tmp/ccpiGvb5.s:3968   .debug_str:000000000000085d .LASF122
     /tmp/ccpiGvb5.s:3756   .debug_str:00000000000001e6 .LASF123
     /tmp/ccpiGvb5.s:3766   .debug_str:0000000000000254 .LASF124
     /tmp/ccpiGvb5.s:3738   .debug_str:0000000000000173 .LASF125
     /tmp/ccpiGvb5.s:3792   .debug_str:0000000000000311 .LASF126
     /tmp/ccpiGvb5.s:3700   .debug_str:0000000000000080 .LASF127
     /tmp/ccpiGvb5.s:76     .text:0000000000000028 .LFB39
     /tmp/ccpiGvb5.s:797    .text:00000000000002c8 .LFE39
     /tmp/ccpiGvb5.s:3694   .debug_str:0000000000000067 .LASF128
     /tmp/ccpiGvb5.s:3395   .debug_loc:0000000000000000 .LLST1
     /tmp/ccpiGvb5.s:3672   .debug_ranges:0000000000000000 .Ldebug_ranges0
     /tmp/ccpiGvb5.s:3982   .debug_str:00000000000008c5 .LASF129
     /tmp/ccpiGvb5.s:3916   .debug_str:0000000000000647 .LASF130
     /tmp/ccpiGvb5.s:3866   .debug_str:0000000000000503 .LASF131
     /tmp/ccpiGvb5.s:3418   .debug_loc:000000000000006f .LLST2
     /tmp/ccpiGvb5.s:311    .text:0000000000000124 .LBB53
     /tmp/ccpiGvb5.s:328    .text:0000000000000134 .LBE53
     /tmp/ccpiGvb5.s:3425   .debug_loc:0000000000000092 .LLST3
     /tmp/ccpiGvb5.s:325    .text:0000000000000134 .LVL12
     /tmp/ccpiGvb5.s:387    .text:0000000000000158 .LBB54
     /tmp/ccpiGvb5.s:403    .text:0000000000000168 .LBE54
     /tmp/ccpiGvb5.s:3432   .debug_loc:00000000000000b5 .LLST4
     /tmp/ccpiGvb5.s:391    .text:0000000000000160 .LVL18
     /tmp/ccpiGvb5.s:406    .text:0000000000000168 .LBB55
     /tmp/ccpiGvb5.s:433    .text:0000000000000180 .LBE55
     /tmp/ccpiGvb5.s:3742   .debug_str:000000000000018a .LASF132
     /tmp/ccpiGvb5.s:3439   .debug_loc:00000000000000d8 .LLST5
     /tmp/ccpiGvb5.s:3786   .debug_str:00000000000002ec .LASF133
     /tmp/ccpiGvb5.s:3446   .debug_loc:00000000000000fb .LLST6
     /tmp/ccpiGvb5.s:421    .text:0000000000000178 .LVL22
     /tmp/ccpiGvb5.s:436    .text:0000000000000180 .LBB56
     /tmp/ccpiGvb5.s:461    .text:0000000000000194 .LBE56
     /tmp/ccpiGvb5.s:3453   .debug_loc:000000000000011e .LLST7
     /tmp/ccpiGvb5.s:3460   .debug_loc:0000000000000141 .LLST8
GAS LISTING /tmp/ccpiGvb5.s 			page 34


     /tmp/ccpiGvb5.s:449    .text:000000000000018c .LVL25
     /tmp/ccpiGvb5.s:464    .text:0000000000000194 .LBB57
     /tmp/ccpiGvb5.s:524    .text:00000000000001c8 .LBE57
     /tmp/ccpiGvb5.s:3864   .debug_str:00000000000004fc .LASF134
     /tmp/ccpiGvb5.s:3467   .debug_loc:0000000000000164 .LLST9
     /tmp/ccpiGvb5.s:3886   .debug_str:0000000000000594 .LASF135
     /tmp/ccpiGvb5.s:3474   .debug_loc:0000000000000187 .LLST10
     /tmp/ccpiGvb5.s:3481   .debug_loc:00000000000001aa .LLST11
     /tmp/ccpiGvb5.s:3488   .debug_loc:00000000000001cd .LLST12
     /tmp/ccpiGvb5.s:3495   .debug_loc:00000000000001f0 .LLST13
     /tmp/ccpiGvb5.s:498    .text:00000000000001ac .LVL31
     /tmp/ccpiGvb5.s:527    .text:00000000000001c8 .LBB58
     /tmp/ccpiGvb5.s:573    .text:0000000000000208 .LBE58
     /tmp/ccpiGvb5.s:3872   .debug_str:0000000000000538 .LASF136
     /tmp/ccpiGvb5.s:3502   .debug_loc:0000000000000213 .LLST14
     /tmp/ccpiGvb5.s:3992   .debug_str:0000000000000910 .LASF137
     /tmp/ccpiGvb5.s:3509   .debug_loc:0000000000000236 .LLST15
     /tmp/ccpiGvb5.s:534    .text:00000000000001d4 .LBB59
     /tmp/ccpiGvb5.s:543    .text:00000000000001dc .LBE59
     /tmp/ccpiGvb5.s:3516   .debug_loc:0000000000000259 .LLST16
     /tmp/ccpiGvb5.s:3524   .debug_loc:000000000000027d .LLST17
     /tmp/ccpiGvb5.s:553    .text:00000000000001e8 .LBB61
     /tmp/ccpiGvb5.s:565    .text:00000000000001f8 .LBE61
     /tmp/ccpiGvb5.s:3531   .debug_loc:00000000000002a0 .LLST18
     /tmp/ccpiGvb5.s:562    .text:00000000000001f8 .LVL39
     /tmp/ccpiGvb5.s:548    .text:00000000000001e4 .LVL37
     /tmp/ccpiGvb5.s:569    .text:0000000000000204 .LVL40
     /tmp/ccpiGvb5.s:585    .text:0000000000000214 .LBB63
     /tmp/ccpiGvb5.s:632    .text:0000000000000244 .LBE63
     /tmp/ccpiGvb5.s:3538   .debug_loc:00000000000002c3 .LLST19
     /tmp/ccpiGvb5.s:3545   .debug_loc:00000000000002e6 .LLST20
     /tmp/ccpiGvb5.s:3552   .debug_loc:0000000000000309 .LLST21
     /tmp/ccpiGvb5.s:606    .text:0000000000000228 .LVL45
     /tmp/ccpiGvb5.s:635    .text:0000000000000244 .LBB64
     /tmp/ccpiGvb5.s:662    .text:000000000000025c .LBE64
     /tmp/ccpiGvb5.s:3559   .debug_loc:000000000000032c .LLST22
     /tmp/ccpiGvb5.s:3718   .debug_str:00000000000000ee .LASF138
     /tmp/ccpiGvb5.s:3566   .debug_loc:000000000000034f .LLST23
     /tmp/ccpiGvb5.s:649    .text:0000000000000250 .LVL50
     /tmp/ccpiGvb5.s:665    .text:000000000000025c .LBB65
     /tmp/ccpiGvb5.s:692    .text:0000000000000274 .LBE65
     /tmp/ccpiGvb5.s:3574   .debug_loc:0000000000000373 .LLST24
     /tmp/ccpiGvb5.s:3581   .debug_loc:0000000000000396 .LLST25
     /tmp/ccpiGvb5.s:679    .text:0000000000000268 .LVL53
     /tmp/ccpiGvb5.s:695    .text:0000000000000274 .LBB66
     /tmp/ccpiGvb5.s:722    .text:000000000000028c .LBE66
     /tmp/ccpiGvb5.s:3589   .debug_loc:00000000000003ba .LLST26
     /tmp/ccpiGvb5.s:3596   .debug_loc:00000000000003dd .LLST27
     /tmp/ccpiGvb5.s:709    .text:0000000000000280 .LVL56
     /tmp/ccpiGvb5.s:725    .text:000000000000028c .LBB67
     /tmp/ccpiGvb5.s:739    .text:0000000000000298 .LBE67
     /tmp/ccpiGvb5.s:3604   .debug_loc:0000000000000401 .LLST28
     /tmp/ccpiGvb5.s:742    .text:0000000000000298 .LBB68
     /tmp/ccpiGvb5.s:769    .text:00000000000002b0 .LBE68
     /tmp/ccpiGvb5.s:3613   .debug_loc:0000000000000426 .LLST29
     /tmp/ccpiGvb5.s:3620   .debug_loc:0000000000000449 .LLST30
     /tmp/ccpiGvb5.s:756    .text:00000000000002a4 .LVL60
GAS LISTING /tmp/ccpiGvb5.s 			page 35


     /tmp/ccpiGvb5.s:176    .text:00000000000000d8 .LBB47
     /tmp/ccpiGvb5.s:191    .text:00000000000000e4 .LBE47
     /tmp/ccpiGvb5.s:197    .text:00000000000000ec .LBB49
     /tmp/ccpiGvb5.s:212    .text:00000000000000f8 .LBE49
     /tmp/ccpiGvb5.s:335    .text:0000000000000138 .LBB70
     /tmp/ccpiGvb5.s:346    .text:000000000000013c .LBE70
     /tmp/ccpiGvb5.s:3628   .debug_loc:000000000000046d .LLST31
     /tmp/ccpiGvb5.s:351    .text:0000000000000140 .LBB72
     /tmp/ccpiGvb5.s:363    .text:0000000000000144 .LBE72
     /tmp/ccpiGvb5.s:3635   .debug_loc:0000000000000490 .LLST32
     /tmp/ccpiGvb5.s:579    .text:0000000000000210 .LVL42
     /tmp/ccpiGvb5.s:90     .text:000000000000003c .LBB41
     /tmp/ccpiGvb5.s:106    .text:0000000000000048 .LBE41
     /tmp/ccpiGvb5.s:150    .text:00000000000000c0 .LBB44
     /tmp/ccpiGvb5.s:165    .text:00000000000000cc .LBE44
     /tmp/ccpiGvb5.s:774    .text:00000000000002b0 .LBB76
     /tmp/ccpiGvb5.s:789    .text:00000000000002bc .LBE76
     /tmp/ccpiGvb5.s:3642   .debug_loc:00000000000004b3 .LLST33
     /tmp/ccpiGvb5.s:128    .text:0000000000000084 .LVL3
     /tmp/ccpiGvb5.s:133    .text:0000000000000094 .LVL4
     /tmp/ccpiGvb5.s:138    .text:00000000000000a4 .LVL5
     /tmp/ccpiGvb5.s:143    .text:00000000000000b0 .LVL6
     /tmp/ccpiGvb5.s:148    .text:00000000000000c0 .LVL7
     /tmp/ccpiGvb5.s:168    .text:00000000000000d4 .LVL8
     /tmp/ccpiGvb5.s:793    .text:00000000000002c4 .LVL63
     /tmp/ccpiGvb5.s:10     .text:0000000000000000 .LFB38
     /tmp/ccpiGvb5.s:56     .text:0000000000000028 .LFE38
     /tmp/ccpiGvb5.s:22     .text:000000000000000c .LBB39
     /tmp/ccpiGvb5.s:35     .text:0000000000000014 .LBE39
     /tmp/ccpiGvb5.s:3650   .debug_loc:00000000000004d7 .LLST0
     /tmp/ccpiGvb5.s:4004   .debug_str:000000000000097a .LASF139
     /tmp/ccpiGvb5.s:3802   .debug_str:0000000000000352 .LASF141
     /tmp/ccpiGvb5.s:3940   .debug_str:00000000000006e2 .LASF140
     /tmp/ccpiGvb5.s:3994   .debug_str:0000000000000915 .LASF167
     /tmp/ccpiGvb5.s:3732   .debug_str:000000000000015f .LASF142
     /tmp/ccpiGvb5.s:3924   .debug_str:0000000000000675 .LASF143
     /tmp/ccpiGvb5.s:3858   .debug_str:00000000000004db .LASF144
     /tmp/ccpiGvb5.s:3976   .debug_str:000000000000089b .LASF145
     /tmp/ccpiGvb5.s:3928   .debug_str:0000000000000692 .LASF146
     /tmp/ccpiGvb5.s:3934   .debug_str:00000000000006c2 .LASF147
     /tmp/ccpiGvb5.s:3822   .debug_str:00000000000003e9 .LASF149
     /tmp/ccpiGvb5.s:3856   .debug_str:00000000000004d4 .LASF148
     /tmp/ccpiGvb5.s:3944   .debug_str:00000000000006fb .LASF150
     /tmp/ccpiGvb5.s:3850   .debug_str:00000000000004b1 .LASF151
     /tmp/ccpiGvb5.s:3798   .debug_str:000000000000032f .LASF152
     /tmp/ccpiGvb5.s:3954   .debug_str:000000000000073e .LASF153
     /tmp/ccpiGvb5.s:3682   .debug_str:0000000000000000 .LASF154
     /tmp/ccpiGvb5.s:3842   .debug_str:000000000000047a .LASF155
     /tmp/ccpiGvb5.s:104    .text:0000000000000048 .LVL2
     /tmp/ccpiGvb5.s:378    .text:0000000000000158 .LVL17
     /tmp/ccpiGvb5.s:475    .text:0000000000000198 .LVL27
     /tmp/ccpiGvb5.s:522    .text:00000000000001c8 .LVL34
     /tmp/ccpiGvb5.s:532    .text:00000000000001d4 .LVL35
     /tmp/ccpiGvb5.s:571    .text:0000000000000208 .LVL41
     /tmp/ccpiGvb5.s:594    .text:0000000000000218 .LVL43
     /tmp/ccpiGvb5.s:630    .text:0000000000000244 .LVL48
     /tmp/ccpiGvb5.s:222    .text:0000000000000100 .LVL9
GAS LISTING /tmp/ccpiGvb5.s 			page 36


     /tmp/ccpiGvb5.s:228    .text:000000000000010c .LVL10
     /tmp/ccpiGvb5.s:319    .text:0000000000000128 .LVL11
     /tmp/ccpiGvb5.s:401    .text:0000000000000168 .LVL19
     /tmp/ccpiGvb5.s:414    .text:000000000000016c .LVL20
     /tmp/ccpiGvb5.s:419    .text:0000000000000170 .LVL21
     /tmp/ccpiGvb5.s:431    .text:0000000000000180 .LVL23
     /tmp/ccpiGvb5.s:444    .text:0000000000000184 .LVL24
     /tmp/ccpiGvb5.s:459    .text:0000000000000194 .LVL26
     /tmp/ccpiGvb5.s:487    .text:00000000000001a0 .LVL29
     /tmp/ccpiGvb5.s:481    .text:000000000000019c .LVL28
     /tmp/ccpiGvb5.s:493    .text:00000000000001a4 .LVL30
     /tmp/ccpiGvb5.s:507    .text:00000000000001b8 .LVL32
     /tmp/ccpiGvb5.s:517    .text:00000000000001c0 .LVL33
     /tmp/ccpiGvb5.s:541    .text:00000000000001dc .LVL36
     /tmp/ccpiGvb5.s:552    .text:00000000000001e8 .LVL38
     /tmp/ccpiGvb5.s:600    .text:000000000000021c .LVL44
     /tmp/ccpiGvb5.s:615    .text:0000000000000234 .LVL46
     /tmp/ccpiGvb5.s:625    .text:000000000000023c .LVL47
     /tmp/ccpiGvb5.s:643    .text:0000000000000248 .LVL49
     /tmp/ccpiGvb5.s:660    .text:000000000000025c .LVL51
     /tmp/ccpiGvb5.s:673    .text:0000000000000260 .LVL52
     /tmp/ccpiGvb5.s:690    .text:0000000000000274 .LVL54
     /tmp/ccpiGvb5.s:703    .text:0000000000000278 .LVL55
     /tmp/ccpiGvb5.s:720    .text:000000000000028c .LVL57
     /tmp/ccpiGvb5.s:737    .text:0000000000000298 .LVL58
     /tmp/ccpiGvb5.s:750    .text:000000000000029c .LVL59
     /tmp/ccpiGvb5.s:767    .text:00000000000002b0 .LVL61
     /tmp/ccpiGvb5.s:334    .text:0000000000000138 .LVL13
     /tmp/ccpiGvb5.s:343    .text:000000000000013c .LVL14
     /tmp/ccpiGvb5.s:350    .text:0000000000000140 .LVL15
     /tmp/ccpiGvb5.s:359    .text:0000000000000144 .LVL16
     /tmp/ccpiGvb5.s:786    .text:00000000000002bc .LVL62
     /tmp/ccpiGvb5.s:21     .text:000000000000000c .LVL0
     /tmp/ccpiGvb5.s:32     .text:0000000000000014 .LVL1
     /tmp/ccpiGvb5.s:807    .debug_info:0000000000000000 .Ldebug_info0
     /tmp/ccpiGvb5.s:174    .text:00000000000000d8 .LBB46
     /tmp/ccpiGvb5.s:364    .text:0000000000000144 .LBE46
     /tmp/ccpiGvb5.s:382    .text:0000000000000158 .LBB75
     /tmp/ccpiGvb5.s:772    .text:00000000000002b0 .LBE75

UNDEFINED SYMBOLS
_Z12_printStringPKc
_Z13_printIntegerm
__putc
__getc
__mem_alloc
__mem_free
_ZN3TCB12createThreadEPFvPvES0_Pc
_ZN3TCB7runningE
_ZN3TCB8dispatchEv
_ZdaPv
_ZdlPv
_ZN3Sem8sem_openEi
_ZN3Sem9sem_closeEv
_ZN3Sem8sem_waitEv
_ZN3Sem10sem_signalEv
_ZN3Sem11sem_trywaitEv
GAS LISTING /tmp/ccpiGvb5.s 			page 37


console_handler
