GAS LISTING /tmp/ccGmqTFt.s 			page 1


   1              		.file	"Semafor.cpp"
   2              		.option pic
   3              		.option norelax
   4              		.text
   5              	.Ltext0:
   6              		.align	2
   7              		.globl	_ZN3Sem8sem_openEi
   9              	_ZN3Sem8sem_openEi:
  10              	.LFB22:
  11              		.file 1 "src/Semafor.cpp"
   1:src/Semafor.cpp **** //
   2:src/Semafor.cpp **** // Created by os on 9/3/24.
   3:src/Semafor.cpp **** //
   4:src/Semafor.cpp **** 
   5:src/Semafor.cpp **** #include "../h/Semafor.hpp"
   6:src/Semafor.cpp **** #include "../test/printing.hpp"
   7:src/Semafor.cpp **** 
   8:src/Semafor.cpp **** Sem* Sem::sem_open(int val){
  12              		.loc 1 8 28
  13              		.cfi_startproc
  14              	.LVL0:
  15 0000 130101FE 		addi	sp,sp,-32
  16              		.cfi_def_cfa_offset 32
  17 0004 233C1100 		sd	ra,24(sp)
  18 0008 23388100 		sd	s0,16(sp)
  19 000c 23349100 		sd	s1,8(sp)
  20              		.cfi_offset 1, -8
  21              		.cfi_offset 8, -16
  22              		.cfi_offset 9, -24
  23 0010 13040102 		addi	s0,sp,32
  24              		.cfi_def_cfa 8, 0
  25 0014 93040500 		mv	s1,a0
   9:src/Semafor.cpp ****     return new Sem(val);
  26              		.loc 1 9 5
  27              		.loc 1 9 23 is_stmt 0
  28 0018 13058001 		li	a0,24
  29              	.LVL1:
  30 001c 97000000 		call	_Znwm@plt
  30      E7800000 
  31              	.LVL2:
  32              	.LBB34:
  33              	.LBB35:
  34              		.file 2 "src/../h/Semafor.hpp"
   1:src/../h/Semafor.hpp **** #ifndef OS1_PROJEKAT_SEMAFOR_HPP
   2:src/../h/Semafor.hpp **** #define OS1_PROJEKAT_SEMAFOR_HPP
   3:src/../h/Semafor.hpp **** 
   4:src/../h/Semafor.hpp **** #include "list.hpp"
   5:src/../h/Semafor.hpp **** #include "tcb.hpp"
   6:src/../h/Semafor.hpp **** 
   7:src/../h/Semafor.hpp **** class Sem{
   8:src/../h/Semafor.hpp **** private:
   9:src/../h/Semafor.hpp ****     int value;
  10:src/../h/Semafor.hpp ****     List<TCB> blokirani;
  11:src/../h/Semafor.hpp ****     //bool zatvoren;
  12:src/../h/Semafor.hpp **** 
  13:src/../h/Semafor.hpp **** public:
  14:src/../h/Semafor.hpp ****     Sem(int init = 1) : value(init) {}
GAS LISTING /tmp/ccGmqTFt.s 			page 2


  35              		.loc 2 14 35
  36 0024 23209500 		sw	s1,0(a0)
  37              	.LVL3:
  38              	.LBB36:
  39              	.LBB37:
  40              		.file 3 "src/../h/list.hpp"
   1:src/../h/list.hpp **** #ifndef OS1_PROJEKAT_LIST_HPP
   2:src/../h/list.hpp **** #define OS1_PROJEKAT_LIST_HPP
   3:src/../h/list.hpp **** 
   4:src/../h/list.hpp **** template <typename T>
   5:src/../h/list.hpp **** class List{
   6:src/../h/list.hpp **** private:
   7:src/../h/list.hpp ****     struct Elem{
   8:src/../h/list.hpp ****         T *data;
   9:src/../h/list.hpp ****         Elem *next;
  10:src/../h/list.hpp **** 
  11:src/../h/list.hpp ****         Elem(T *data, Elem *next) : data(data), next(next){}
  12:src/../h/list.hpp ****     };
  13:src/../h/list.hpp **** 
  14:src/../h/list.hpp ****     Elem *head, *tail;
  15:src/../h/list.hpp **** public:
  16:src/../h/list.hpp ****     List() : head(0), tail(0) {}
  41              		.loc 3 16 29
  42 0028 23340500 		sd	zero,8(a0)
  43 002c 23380500 		sd	zero,16(a0)
  44              	.LVL4:
  45              	.LBE37:
  46              	.LBE36:
  47              	.LBE35:
  48              	.LBE34:
  10:src/Semafor.cpp **** }
  49              		.loc 1 10 1
  50 0030 83308101 		ld	ra,24(sp)
  51              		.cfi_restore 1
  52 0034 03340101 		ld	s0,16(sp)
  53              		.cfi_restore 8
  54              		.cfi_def_cfa 2, 32
  55 0038 83348100 		ld	s1,8(sp)
  56              		.cfi_restore 9
  57 003c 13010102 		addi	sp,sp,32
  58              		.cfi_def_cfa_offset 0
  59 0040 67800000 		jr	ra
  60              		.cfi_endproc
  61              	.LFE22:
  63              		.align	2
  64              		.globl	_ZN3Sem9sem_closeEv
  66              	_ZN3Sem9sem_closeEv:
  67              	.LFB23:
  11:src/Semafor.cpp **** 
  12:src/Semafor.cpp **** void Sem::sem_close() {
  68              		.loc 1 12 23 is_stmt 1
  69              		.cfi_startproc
  70              	.LVL5:
  71 0044 130101FE 		addi	sp,sp,-32
  72              		.cfi_def_cfa_offset 32
  73 0048 233C1100 		sd	ra,24(sp)
  74 004c 23388100 		sd	s0,16(sp)
GAS LISTING /tmp/ccGmqTFt.s 			page 3


  75 0050 23349100 		sd	s1,8(sp)
  76 0054 23302101 		sd	s2,0(sp)
  77              		.cfi_offset 1, -8
  78              		.cfi_offset 8, -16
  79              		.cfi_offset 9, -24
  80              		.cfi_offset 18, -32
  81 0058 13040102 		addi	s0,sp,32
  82              		.cfi_def_cfa 8, 0
  83 005c 93040500 		mv	s1,a0
  13:src/Semafor.cpp ****     TCB* curr = 0;
  84              		.loc 1 13 5
  85              	.LVL6:
  86 0060 6F000002 		j	.L6
  87              	.LVL7:
  88              	.L8:
  89              	.LBB38:
  90              	.LBB39:
  17:src/../h/list.hpp **** 
  18:src/../h/list.hpp ****     List(const List<T> &) = delete;
  19:src/../h/list.hpp **** 
  20:src/../h/list.hpp ****     void addFirst(T *data){
  21:src/../h/list.hpp ****         Elem *elem = new Elem(data, head);
  22:src/../h/list.hpp ****         head = elem;
  23:src/../h/list.hpp ****         if(!tail) { tail = head; }
  24:src/../h/list.hpp ****     }
  25:src/../h/list.hpp **** 
  26:src/../h/list.hpp ****     void addLast(T *data){
  27:src/../h/list.hpp ****         Elem *elem = new Elem(data, 0);
  28:src/../h/list.hpp **** 
  29:src/../h/list.hpp ****         if(tail){
  30:src/../h/list.hpp ****             tail->next = elem;
  31:src/../h/list.hpp ****             tail = elem;
  32:src/../h/list.hpp ****         }
  33:src/../h/list.hpp ****         else {
  34:src/../h/list.hpp ****             head = tail = elem;
  35:src/../h/list.hpp ****         }
  36:src/../h/list.hpp ****     }
  37:src/../h/list.hpp **** 
  38:src/../h/list.hpp ****     T* removeFirst(){
  39:src/../h/list.hpp ****         if (!head) return 0;
  40:src/../h/list.hpp **** 
  41:src/../h/list.hpp ****         Elem *elem = head;
  42:src/../h/list.hpp ****         head = head->next;
  43:src/../h/list.hpp **** 
  44:src/../h/list.hpp ****         if(!head) tail = 0;
  91              		.loc 3 44 19 is_stmt 0
  92 0064 23B80400 		sd	zero,16(s1)
  93              	.L5:
  45:src/../h/list.hpp **** 
  46:src/../h/list.hpp ****         T* ret = elem->data;
  94              		.loc 3 46 12
  95 0068 03390500 		ld	s2,0(a0)
  96              	.LVL8:
  47:src/../h/list.hpp ****         delete elem;
  97              		.loc 3 47 9
  98 006c 97000000 		call	_ZdlPv@plt
  98      E7800000 
GAS LISTING /tmp/ccGmqTFt.s 			page 4


  99              	.LVL9:
 100              	.LBE39:
 101              	.LBE38:
  14:src/Semafor.cpp ****     while (blokirani.peekFirst()){
  15:src/Semafor.cpp ****         curr = blokirani.removeFirst();
  16:src/Semafor.cpp ****         Scheduler::put(curr);
 102              		.loc 1 16 9 is_stmt 1
 103              		.loc 1 16 23 is_stmt 0
 104 0074 13050900 		mv	a0,s2
 105 0078 97000000 		call	_ZN9Scheduler3putEP3TCB@plt
 105      E7800000 
 106              	.LVL10:
 107              	.L6:
  14:src/Semafor.cpp ****     while (blokirani.peekFirst()){
 108              		.loc 1 14 5 is_stmt 1
  14:src/Semafor.cpp ****     while (blokirani.peekFirst()){
 109              		.loc 1 14 32
 110              	.LBB41:
 111              	.LBB42:
  48:src/../h/list.hpp ****         return ret;
  49:src/../h/list.hpp ****     }
  50:src/../h/list.hpp **** 
  51:src/../h/list.hpp ****     T* peekFirst(){
  52:src/../h/list.hpp ****        if(!head) {return 0;}
 112              		.loc 3 52 12 is_stmt 0
 113 0080 03B58400 		ld	a0,8(s1)
 114              		.loc 3 52 8
 115 0084 630E0500 		beqz	a0,.L3
  53:src/../h/list.hpp ****         return head->data;
 116              		.loc 3 53 22
 117 0088 83370500 		ld	a5,0(a0)
 118              	.LVL11:
 119              	.LBE42:
 120              	.LBE41:
  14:src/Semafor.cpp ****     while (blokirani.peekFirst()){
 121              		.loc 1 14 32
 122 008c 638A0700 		beqz	a5,.L3
  15:src/Semafor.cpp ****         Scheduler::put(curr);
 123              		.loc 1 15 9 is_stmt 1
 124              	.LVL12:
 125              	.LBB43:
 126              	.LBB40:
  42:src/../h/list.hpp **** 
 127              		.loc 3 42 22 is_stmt 0
 128 0090 83378500 		ld	a5,8(a0)
  42:src/../h/list.hpp **** 
 129              		.loc 3 42 9
 130 0094 23B4F400 		sd	a5,8(s1)
  44:src/../h/list.hpp **** 
 131              		.loc 3 44 9
 132 0098 E39807FC 		bnez	a5,.L5
 133 009c 6FF09FFC 		j	.L8
 134              	.LVL13:
 135              	.L3:
 136              	.LBE40:
 137              	.LBE43:
  17:src/Semafor.cpp ****     }
GAS LISTING /tmp/ccGmqTFt.s 			page 5


  18:src/Semafor.cpp **** }
 138              		.loc 1 18 1
 139 00a0 83308101 		ld	ra,24(sp)
 140              		.cfi_restore 1
 141 00a4 03340101 		ld	s0,16(sp)
 142              		.cfi_restore 8
 143              		.cfi_def_cfa 2, 32
 144 00a8 83348100 		ld	s1,8(sp)
 145              		.cfi_restore 9
 146              	.LVL14:
 147 00ac 03390100 		ld	s2,0(sp)
 148              		.cfi_restore 18
 149 00b0 13010102 		addi	sp,sp,32
 150              		.cfi_def_cfa_offset 0
 151 00b4 67800000 		jr	ra
 152              		.cfi_endproc
 153              	.LFE23:
 155              		.align	2
 156              		.globl	_ZN3Sem8sem_waitEv
 158              	_ZN3Sem8sem_waitEv:
 159              	.LFB24:
  19:src/Semafor.cpp **** 
  20:src/Semafor.cpp **** void Sem::sem_wait() {
 160              		.loc 1 20 22 is_stmt 1
 161              		.cfi_startproc
 162              	.LVL15:
 163 00b8 130101FE 		addi	sp,sp,-32
 164              		.cfi_def_cfa_offset 32
 165 00bc 233C1100 		sd	ra,24(sp)
 166 00c0 23388100 		sd	s0,16(sp)
 167 00c4 23349100 		sd	s1,8(sp)
 168 00c8 23302101 		sd	s2,0(sp)
 169              		.cfi_offset 1, -8
 170              		.cfi_offset 8, -16
 171              		.cfi_offset 9, -24
 172              		.cfi_offset 18, -32
 173 00cc 13040102 		addi	s0,sp,32
 174              		.cfi_def_cfa 8, 0
  21:src/Semafor.cpp ****     TCB* curr = TCB::running;
 175              		.loc 1 21 5
 176              		.loc 1 21 10 is_stmt 0
 177 00d0 97070000 		la	a5,_ZN3TCB7runningE
 177      83B70700 
 178 00d8 03B90700 		ld	s2,0(a5)
 179              	.LVL16:
  22:src/Semafor.cpp ****     if (--value < 0) {
 180              		.loc 1 22 5 is_stmt 1
 181              		.loc 1 22 11 is_stmt 0
 182 00dc 83270500 		lw	a5,0(a0)
 183              		.loc 1 22 9
 184 00e0 9B87F7FF 		addiw	a5,a5,-1
 185              		.loc 1 22 17
 186 00e4 2320F500 		sw	a5,0(a0)
 187              		.loc 1 22 5
 188 00e8 13970702 		slli	a4,a5,32
 189 00ec 634E0700 		bltz	a4,.L14
 190              	.LVL17:
GAS LISTING /tmp/ccGmqTFt.s 			page 6


 191              	.L9:
  23:src/Semafor.cpp ****         curr->setActive(false);
  24:src/Semafor.cpp ****         blokirani.addLast(curr);
  25:src/Semafor.cpp ****         TCB::dispatch();
  26:src/Semafor.cpp ****     }
  27:src/Semafor.cpp **** }
 192              		.loc 1 27 1
 193 00f0 83308101 		ld	ra,24(sp)
 194              		.cfi_remember_state
 195              		.cfi_restore 1
 196 00f4 03340101 		ld	s0,16(sp)
 197              		.cfi_restore 8
 198              		.cfi_def_cfa 2, 32
 199 00f8 83348100 		ld	s1,8(sp)
 200              		.cfi_restore 9
 201 00fc 03390100 		ld	s2,0(sp)
 202              		.cfi_restore 18
 203              	.LVL18:
 204 0100 13010102 		addi	sp,sp,32
 205              		.cfi_def_cfa_offset 0
 206 0104 67800000 		jr	ra
 207              	.LVL19:
 208              	.L14:
 209              		.cfi_restore_state
 210 0108 93040500 		mv	s1,a0
  23:src/Semafor.cpp ****         curr->setActive(false);
 211              		.loc 1 23 9 is_stmt 1
 212              	.LVL20:
 213              	.LBB44:
 214              	.LBB45:
 215              		.file 4 "src/../h/tcb.hpp"
   1:src/../h/tcb.hpp **** #ifndef OS1_PROJEKAT_TCB_HPP
   2:src/../h/tcb.hpp **** #define OS1_PROJEKAT_TCB_HPP
   3:src/../h/tcb.hpp **** 
   4:src/../h/tcb.hpp **** #include "scheduler.hpp"
   5:src/../h/tcb.hpp **** #include "../lib/hw.h"
   6:src/../h/tcb.hpp **** 
   7:src/../h/tcb.hpp **** class TCB{
   8:src/../h/tcb.hpp **** public:
   9:src/../h/tcb.hpp ****     using Body = void (*)(void*);
  10:src/../h/tcb.hpp ****     //using Body = void (*)();
  11:src/../h/tcb.hpp **** private:
  12:src/../h/tcb.hpp ****     friend class Riscv;
  13:src/../h/tcb.hpp ****     //friend class Sem; a
  14:src/../h/tcb.hpp **** 
  15:src/../h/tcb.hpp ****     TCB(Body body, void* arg, char *stek) :
  16:src/../h/tcb.hpp ****             body(body),
  17:src/../h/tcb.hpp ****             argumentiFje(arg),
  18:src/../h/tcb.hpp ****             stack(body != nullptr ? stek : nullptr),
  19:src/../h/tcb.hpp ****             context({
  20:src/../h/tcb.hpp ****                             (uint64) &threadWrapper,
  21:src/../h/tcb.hpp ****                             stack != nullptr ? (uint64) &stack[DEFAULT_STACK_SIZE] : 0
  22:src/../h/tcb.hpp ****                     }),
  23:src/../h/tcb.hpp ****             finished(false),
  24:src/../h/tcb.hpp ****             active(true)
  25:src/../h/tcb.hpp ****     {
  26:src/../h/tcb.hpp ****         if(body!=nullptr) Scheduler::put(this);
GAS LISTING /tmp/ccGmqTFt.s 			page 7


  27:src/../h/tcb.hpp ****     }
  28:src/../h/tcb.hpp **** 
  29:src/../h/tcb.hpp ****     struct Context{
  30:src/../h/tcb.hpp ****         uint64 ra;
  31:src/../h/tcb.hpp ****         uint64 sp;
  32:src/../h/tcb.hpp ****     };  //a
  33:src/../h/tcb.hpp **** 
  34:src/../h/tcb.hpp ****     Body body;
  35:src/../h/tcb.hpp ****     void* argumentiFje;
  36:src/../h/tcb.hpp ****     char *stack;
  37:src/../h/tcb.hpp ****     Context context;
  38:src/../h/tcb.hpp ****     //uint64 timeSlice;
  39:src/../h/tcb.hpp ****     volatile bool finished;
  40:src/../h/tcb.hpp ****     bool  active;
  41:src/../h/tcb.hpp ****     //static uint64 timeSliceCounter;
  42:src/../h/tcb.hpp ****     static void threadWrapper();
  43:src/../h/tcb.hpp **** 
  44:src/../h/tcb.hpp **** 
  45:src/../h/tcb.hpp **** public:
  46:src/../h/tcb.hpp ****     ~TCB(){ delete[] stack; }
  47:src/../h/tcb.hpp **** 
  48:src/../h/tcb.hpp ****     //static TCB* createNewTCB(Body body, void* args, void* stack);
  49:src/../h/tcb.hpp **** 
  50:src/../h/tcb.hpp ****     bool isFinished() const { return finished; }
  51:src/../h/tcb.hpp ****     void setFinished(bool flag) { finished = flag; }
  52:src/../h/tcb.hpp **** 
  53:src/../h/tcb.hpp ****     bool getActive () const { return active; }
  54:src/../h/tcb.hpp ****     void setActive (bool val) { active = val; }
 216              		.loc 4 54 33
 217              		.loc 4 54 40 is_stmt 0
 218 010c A3040902 		sb	zero,41(s2)
 219              	.LVL21:
 220              	.LBE45:
 221              	.LBE44:
  24:src/Semafor.cpp ****         TCB::dispatch();
 222              		.loc 1 24 9 is_stmt 1
 223              	.LBB46:
 224              	.LBB47:
  27:src/../h/list.hpp **** 
 225              		.loc 3 27 22 is_stmt 0
 226 0110 13050001 		li	a0,16
 227              	.LVL22:
 228 0114 97000000 		call	_Znwm@plt
 228      E7800000 
 229              	.LVL23:
 230              	.LBB48:
 231              	.LBB49:
  11:src/../h/list.hpp ****     };
 232              		.loc 3 11 58
 233 011c 23302501 		sd	s2,0(a0)
 234 0120 23340500 		sd	zero,8(a0)
 235              	.LVL24:
 236              	.LBE49:
 237              	.LBE48:
  29:src/../h/list.hpp ****             tail->next = elem;
 238              		.loc 3 29 12
 239 0124 83B70401 		ld	a5,16(s1)
GAS LISTING /tmp/ccGmqTFt.s 			page 8


  29:src/../h/list.hpp ****             tail->next = elem;
 240              		.loc 3 29 9
 241 0128 638C0700 		beqz	a5,.L11
  30:src/../h/list.hpp ****             tail = elem;
 242              		.loc 3 30 13
 243 012c 23B4A700 		sd	a0,8(a5)
  31:src/../h/list.hpp ****         }
 244              		.loc 3 31 13
 245 0130 23B8A400 		sd	a0,16(s1)
 246              	.L12:
 247              	.LVL25:
 248              	.LBE47:
 249              	.LBE46:
  25:src/Semafor.cpp ****     }
 250              		.loc 1 25 9 is_stmt 1
  25:src/Semafor.cpp ****     }
 251              		.loc 1 25 22 is_stmt 0
 252 0134 97000000 		call	_ZN3TCB8dispatchEv@plt
 252      E7800000 
 253              	.LVL26:
 254              		.loc 1 27 1
 255 013c 6FF05FFB 		j	.L9
 256              	.LVL27:
 257              	.L11:
 258              	.LBB51:
 259              	.LBB50:
  34:src/../h/list.hpp ****         }
 260              		.loc 3 34 13
 261 0140 23B8A400 		sd	a0,16(s1)
 262 0144 23B4A400 		sd	a0,8(s1)
 263 0148 6FF0DFFE 		j	.L12
 264              	.LBE50:
 265              	.LBE51:
 266              		.cfi_endproc
 267              	.LFE24:
 269              		.align	2
 270              		.globl	_ZN3Sem10sem_signalEv
 272              	_ZN3Sem10sem_signalEv:
 273              	.LFB25:
  28:src/Semafor.cpp **** 
  29:src/Semafor.cpp **** void Sem::sem_signal() {
 274              		.loc 1 29 24 is_stmt 1
 275              		.cfi_startproc
 276              	.LVL28:
  30:src/Semafor.cpp ****     value++;
 277              		.loc 1 30 5
 278 014c 83270500 		lw	a5,0(a0)
 279              		.loc 1 30 10 is_stmt 0
 280 0150 9B871700 		addiw	a5,a5,1
 281 0154 1B870700 		sext.w	a4,a5
 282 0158 2320F500 		sw	a5,0(a0)
  31:src/Semafor.cpp ****     if (value <= 0 && blokirani.peekFirst()){
 283              		.loc 1 31 5 is_stmt 1
 284              		.loc 1 31 20 is_stmt 0
 285 015c 6354E000 		blez	a4,.L24
 286              	.L21:
 287 0160 67800000 		ret
GAS LISTING /tmp/ccGmqTFt.s 			page 9


 288              	.L24:
 289              	.LVL29:
 290              	.LBB52:
 291              	.LBB53:
  52:src/../h/list.hpp ****         return head->data;
 292              		.loc 3 52 12 discriminator 1
 293 0164 83378500 		ld	a5,8(a0)
  52:src/../h/list.hpp ****         return head->data;
 294              		.loc 3 52 8 discriminator 1
 295 0168 E38C07FE 		beqz	a5,.L21
 296              		.loc 3 53 22
 297 016c 83B70700 		ld	a5,0(a5)
 298              	.LVL30:
 299              	.LBE53:
 300              	.LBE52:
 301              		.loc 1 31 20
 302 0170 E38807FE 		beqz	a5,.L21
  29:src/Semafor.cpp ****     value++;
 303              		.loc 1 29 24
 304 0174 130101FE 		addi	sp,sp,-32
 305              		.cfi_def_cfa_offset 32
 306 0178 233C1100 		sd	ra,24(sp)
 307 017c 23388100 		sd	s0,16(sp)
 308 0180 23349100 		sd	s1,8(sp)
 309              		.cfi_offset 1, -8
 310              		.cfi_offset 8, -16
 311              		.cfi_offset 9, -24
 312 0184 13040102 		addi	s0,sp,32
 313              		.cfi_def_cfa 8, 0
  32:src/Semafor.cpp ****         blokirani.peekFirst()->setActive(true);
 314              		.loc 1 32 9 is_stmt 1
 315              	.LVL31:
 316              	.LBB54:
 317              	.LBB55:
 318              		.loc 4 54 33
 319              		.loc 4 54 40 is_stmt 0
 320 0188 13071000 		li	a4,1
 321 018c A384E702 		sb	a4,41(a5)
 322              	.LVL32:
 323              	.LBE55:
 324              	.LBE54:
  33:src/Semafor.cpp ****         Scheduler::put(blokirani.removeFirst());
 325              		.loc 1 33 9 is_stmt 1
 326              	.LBB56:
 327              	.LBB57:
  39:src/../h/list.hpp **** 
 328              		.loc 3 39 14 is_stmt 0
 329 0190 83378500 		ld	a5,8(a0)
  39:src/../h/list.hpp **** 
 330              		.loc 3 39 9
 331 0194 63840704 		beqz	a5,.L19
 332              	.LVL33:
  42:src/../h/list.hpp **** 
 333              		.loc 3 42 22
 334 0198 03B78700 		ld	a4,8(a5)
  42:src/../h/list.hpp **** 
 335              		.loc 3 42 9
GAS LISTING /tmp/ccGmqTFt.s 			page 10


 336 019c 2334E500 		sd	a4,8(a0)
  44:src/../h/list.hpp **** 
 337              		.loc 3 44 9
 338 01a0 630A0702 		beqz	a4,.L25
 339              	.L18:
  46:src/../h/list.hpp ****         delete elem;
 340              		.loc 3 46 12
 341 01a4 83B40700 		ld	s1,0(a5)
 342              	.LVL34:
  47:src/../h/list.hpp ****         return ret;
 343              		.loc 3 47 9
 344 01a8 13850700 		mv	a0,a5
 345              	.LVL35:
 346 01ac 97000000 		call	_ZdlPv@plt
 346      E7800000 
 347              	.LVL36:
 348              	.L17:
 349              	.LBE57:
 350              	.LBE56:
 351              		.loc 1 33 23
 352 01b4 13850400 		mv	a0,s1
 353 01b8 97000000 		call	_ZN9Scheduler3putEP3TCB@plt
 353      E7800000 
 354              	.LVL37:
  34:src/Semafor.cpp ****     }
  35:src/Semafor.cpp **** }
 355              		.loc 1 35 1
 356 01c0 83308101 		ld	ra,24(sp)
 357              		.cfi_remember_state
 358              		.cfi_restore 1
 359 01c4 03340101 		ld	s0,16(sp)
 360              		.cfi_restore 8
 361              		.cfi_def_cfa 2, 32
 362 01c8 83348100 		ld	s1,8(sp)
 363              		.cfi_restore 9
 364 01cc 13010102 		addi	sp,sp,32
 365              		.cfi_def_cfa_offset 0
 366 01d0 67800000 		jr	ra
 367              	.LVL38:
 368              	.L25:
 369              		.cfi_restore_state
 370              	.LBB59:
 371              	.LBB58:
  44:src/../h/list.hpp **** 
 372              		.loc 3 44 19
 373 01d4 23380500 		sd	zero,16(a0)
 374 01d8 6FF0DFFC 		j	.L18
 375              	.LVL39:
 376              	.L19:
  39:src/../h/list.hpp **** 
 377              		.loc 3 39 27
 378 01dc 93840700 		mv	s1,a5
 379 01e0 6FF05FFD 		j	.L17
 380              	.LBE58:
 381              	.LBE59:
 382              		.cfi_endproc
 383              	.LFE25:
GAS LISTING /tmp/ccGmqTFt.s 			page 11


 385              		.align	2
 386              		.globl	_ZN3Sem11sem_trywaitEv
 388              	_ZN3Sem11sem_trywaitEv:
 389              	.LFB26:
  36:src/Semafor.cpp **** 
  37:src/Semafor.cpp **** int Sem::sem_trywait() {
 390              		.loc 1 37 24 is_stmt 1
 391              		.cfi_startproc
 392              	.LVL40:
 393 01e4 130101FF 		addi	sp,sp,-16
 394              		.cfi_def_cfa_offset 16
 395 01e8 23348100 		sd	s0,8(sp)
 396              		.cfi_offset 8, -8
 397 01ec 13040101 		addi	s0,sp,16
 398              		.cfi_def_cfa 8, 0
  38:src/Semafor.cpp ****     value--;
 399              		.loc 1 38 5
 400 01f0 03270500 		lw	a4,0(a0)
 401              		.loc 1 38 10 is_stmt 0
 402 01f4 9B07F7FF 		addiw	a5,a4,-1
 403 01f8 2320F500 		sw	a5,0(a0)
  39:src/Semafor.cpp ****     if (value < 0)
 404              		.loc 1 39 5 is_stmt 1
 405 01fc 93960702 		slli	a3,a5,32
 406 0200 63CA0600 		bltz	a3,.L30
  40:src/Semafor.cpp ****     {
  41:src/Semafor.cpp ****         value++;
  42:src/Semafor.cpp ****         return 1;
  43:src/Semafor.cpp ****     }
  44:src/Semafor.cpp ****     else return 0;
 407              		.loc 1 44 17 is_stmt 0
 408 0204 13050000 		li	a0,0
 409              	.LVL41:
 410              	.L27:
  45:src/Semafor.cpp **** }
 411              		.loc 1 45 1
 412 0208 03348100 		ld	s0,8(sp)
 413              		.cfi_remember_state
 414              		.cfi_restore 8
 415              		.cfi_def_cfa 2, 16
 416 020c 13010101 		addi	sp,sp,16
 417              		.cfi_def_cfa_offset 0
 418 0210 67800000 		jr	ra
 419              	.LVL42:
 420              	.L30:
 421              		.cfi_restore_state
  41:src/Semafor.cpp ****         return 1;
 422              		.loc 1 41 9 is_stmt 1
  41:src/Semafor.cpp ****         return 1;
 423              		.loc 1 41 14 is_stmt 0
 424 0214 2320E500 		sw	a4,0(a0)
  42:src/Semafor.cpp ****     }
 425              		.loc 1 42 9 is_stmt 1
  42:src/Semafor.cpp ****     }
 426              		.loc 1 42 16 is_stmt 0
 427 0218 13051000 		li	a0,1
 428              	.LVL43:
GAS LISTING /tmp/ccGmqTFt.s 			page 12


 429 021c 6FF0DFFE 		j	.L27
 430              		.cfi_endproc
 431              	.LFE26:
 433              	.Letext0:
 434              		.file 5 "src/../h/scheduler.hpp"
 435              		.file 6 "src/../h/../lib/hw.h"
 436              		.file 7 "src/../test/../h/syscall_c.h"
GAS LISTING /tmp/ccGmqTFt.s 			page 13


DEFINED SYMBOLS
                            *ABS*:0000000000000000 Semafor.cpp
     /tmp/ccGmqTFt.s:9      .text:0000000000000000 _ZN3Sem8sem_openEi
     /tmp/ccGmqTFt.s:13     .text:0000000000000000 .L0 
     /tmp/ccGmqTFt.s:15     .text:0000000000000000 .L0 
     /tmp/ccGmqTFt.s:16     .text:0000000000000004 .L0 
     /tmp/ccGmqTFt.s:20     .text:0000000000000010 .L0 
     /tmp/ccGmqTFt.s:21     .text:0000000000000010 .L0 
     /tmp/ccGmqTFt.s:22     .text:0000000000000010 .L0 
     /tmp/ccGmqTFt.s:24     .text:0000000000000014 .L0 
     /tmp/ccGmqTFt.s:27     .text:0000000000000018 .L0 
     /tmp/ccGmqTFt.s:28     .text:0000000000000018 .L0 
     /tmp/ccGmqTFt.s:36     .text:0000000000000024 .L0 
     /tmp/ccGmqTFt.s:42     .text:0000000000000028 .L0 
     /tmp/ccGmqTFt.s:50     .text:0000000000000030 .L0 
     /tmp/ccGmqTFt.s:51     .text:0000000000000034 .L0 
     /tmp/ccGmqTFt.s:53     .text:0000000000000038 .L0 
     /tmp/ccGmqTFt.s:54     .text:0000000000000038 .L0 
     /tmp/ccGmqTFt.s:56     .text:000000000000003c .L0 
     /tmp/ccGmqTFt.s:58     .text:0000000000000040 .L0 
     /tmp/ccGmqTFt.s:60     .text:0000000000000044 .L0 
     /tmp/ccGmqTFt.s:66     .text:0000000000000044 _ZN3Sem9sem_closeEv
     /tmp/ccGmqTFt.s:69     .text:0000000000000044 .L0 
     /tmp/ccGmqTFt.s:71     .text:0000000000000044 .L0 
     /tmp/ccGmqTFt.s:72     .text:0000000000000048 .L0 
     /tmp/ccGmqTFt.s:77     .text:0000000000000058 .L0 
     /tmp/ccGmqTFt.s:78     .text:0000000000000058 .L0 
     /tmp/ccGmqTFt.s:79     .text:0000000000000058 .L0 
     /tmp/ccGmqTFt.s:80     .text:0000000000000058 .L0 
     /tmp/ccGmqTFt.s:82     .text:000000000000005c .L0 
     /tmp/ccGmqTFt.s:86     .text:0000000000000060 .L0 
     /tmp/ccGmqTFt.s:92     .text:0000000000000064 .L0 
     /tmp/ccGmqTFt.s:95     .text:0000000000000068 .L0 
     /tmp/ccGmqTFt.s:98     .text:000000000000006c .L0 
     /tmp/ccGmqTFt.s:103    .text:0000000000000074 .L0 
     /tmp/ccGmqTFt.s:104    .text:0000000000000074 .L0 
     /tmp/ccGmqTFt.s:109    .text:0000000000000080 .L0 
     /tmp/ccGmqTFt.s:112    .text:0000000000000080 .L0 
     /tmp/ccGmqTFt.s:113    .text:0000000000000080 .L0 
     /tmp/ccGmqTFt.s:115    .text:0000000000000084 .L0 
     /tmp/ccGmqTFt.s:117    .text:0000000000000088 .L0 
     /tmp/ccGmqTFt.s:122    .text:000000000000008c .L0 
     /tmp/ccGmqTFt.s:127    .text:0000000000000090 .L0 
     /tmp/ccGmqTFt.s:128    .text:0000000000000090 .L0 
     /tmp/ccGmqTFt.s:130    .text:0000000000000094 .L0 
     /tmp/ccGmqTFt.s:132    .text:0000000000000098 .L0 
     /tmp/ccGmqTFt.s:139    .text:00000000000000a0 .L0 
     /tmp/ccGmqTFt.s:140    .text:00000000000000a4 .L0 
     /tmp/ccGmqTFt.s:142    .text:00000000000000a8 .L0 
     /tmp/ccGmqTFt.s:143    .text:00000000000000a8 .L0 
     /tmp/ccGmqTFt.s:145    .text:00000000000000ac .L0 
     /tmp/ccGmqTFt.s:148    .text:00000000000000b0 .L0 
     /tmp/ccGmqTFt.s:150    .text:00000000000000b4 .L0 
     /tmp/ccGmqTFt.s:152    .text:00000000000000b8 .L0 
     /tmp/ccGmqTFt.s:158    .text:00000000000000b8 _ZN3Sem8sem_waitEv
     /tmp/ccGmqTFt.s:161    .text:00000000000000b8 .L0 
     /tmp/ccGmqTFt.s:163    .text:00000000000000b8 .L0 
GAS LISTING /tmp/ccGmqTFt.s 			page 14


     /tmp/ccGmqTFt.s:164    .text:00000000000000bc .L0 
     /tmp/ccGmqTFt.s:169    .text:00000000000000cc .L0 
     /tmp/ccGmqTFt.s:170    .text:00000000000000cc .L0 
     /tmp/ccGmqTFt.s:171    .text:00000000000000cc .L0 
     /tmp/ccGmqTFt.s:172    .text:00000000000000cc .L0 
     /tmp/ccGmqTFt.s:174    .text:00000000000000d0 .L0 
     /tmp/ccGmqTFt.s:176    .text:00000000000000d0 .L0 
     /tmp/ccGmqTFt.s:177    .text:00000000000000d0 .L0 
     /tmp/ccGmqTFt.s:181    .text:00000000000000dc .L0 
     /tmp/ccGmqTFt.s:182    .text:00000000000000dc .L0 
     /tmp/ccGmqTFt.s:184    .text:00000000000000e0 .L0 
     /tmp/ccGmqTFt.s:186    .text:00000000000000e4 .L0 
     /tmp/ccGmqTFt.s:188    .text:00000000000000e8 .L0 
     /tmp/ccGmqTFt.s:193    .text:00000000000000f0 .L0 
     /tmp/ccGmqTFt.s:194    .text:00000000000000f4 .L0 
     /tmp/ccGmqTFt.s:195    .text:00000000000000f4 .L0 
     /tmp/ccGmqTFt.s:197    .text:00000000000000f8 .L0 
     /tmp/ccGmqTFt.s:198    .text:00000000000000f8 .L0 
     /tmp/ccGmqTFt.s:200    .text:00000000000000fc .L0 
     /tmp/ccGmqTFt.s:202    .text:0000000000000100 .L0 
     /tmp/ccGmqTFt.s:205    .text:0000000000000104 .L0 
     /tmp/ccGmqTFt.s:209    .text:0000000000000108 .L0 
     /tmp/ccGmqTFt.s:216    .text:000000000000010c .L0 
     /tmp/ccGmqTFt.s:217    .text:000000000000010c .L0 
     /tmp/ccGmqTFt.s:218    .text:000000000000010c .L0 
     /tmp/ccGmqTFt.s:225    .text:0000000000000110 .L0 
     /tmp/ccGmqTFt.s:226    .text:0000000000000110 .L0 
     /tmp/ccGmqTFt.s:233    .text:000000000000011c .L0 
     /tmp/ccGmqTFt.s:239    .text:0000000000000124 .L0 
     /tmp/ccGmqTFt.s:241    .text:0000000000000128 .L0 
     /tmp/ccGmqTFt.s:243    .text:000000000000012c .L0 
     /tmp/ccGmqTFt.s:245    .text:0000000000000130 .L0 
     /tmp/ccGmqTFt.s:251    .text:0000000000000134 .L0 
     /tmp/ccGmqTFt.s:252    .text:0000000000000134 .L0 
     /tmp/ccGmqTFt.s:255    .text:000000000000013c .L0 
     /tmp/ccGmqTFt.s:261    .text:0000000000000140 .L0 
     /tmp/ccGmqTFt.s:266    .text:000000000000014c .L0 
     /tmp/ccGmqTFt.s:272    .text:000000000000014c _ZN3Sem10sem_signalEv
     /tmp/ccGmqTFt.s:275    .text:000000000000014c .L0 
     /tmp/ccGmqTFt.s:277    .text:000000000000014c .L0 
     /tmp/ccGmqTFt.s:278    .text:000000000000014c .L0 
     /tmp/ccGmqTFt.s:280    .text:0000000000000150 .L0 
     /tmp/ccGmqTFt.s:284    .text:000000000000015c .L0 
     /tmp/ccGmqTFt.s:285    .text:000000000000015c .L0 
     /tmp/ccGmqTFt.s:293    .text:0000000000000164 .L0 
     /tmp/ccGmqTFt.s:295    .text:0000000000000168 .L0 
     /tmp/ccGmqTFt.s:297    .text:000000000000016c .L0 
     /tmp/ccGmqTFt.s:302    .text:0000000000000170 .L0 
     /tmp/ccGmqTFt.s:304    .text:0000000000000174 .L0 
     /tmp/ccGmqTFt.s:305    .text:0000000000000178 .L0 
     /tmp/ccGmqTFt.s:309    .text:0000000000000184 .L0 
     /tmp/ccGmqTFt.s:310    .text:0000000000000184 .L0 
     /tmp/ccGmqTFt.s:311    .text:0000000000000184 .L0 
     /tmp/ccGmqTFt.s:313    .text:0000000000000188 .L0 
     /tmp/ccGmqTFt.s:318    .text:0000000000000188 .L0 
     /tmp/ccGmqTFt.s:319    .text:0000000000000188 .L0 
     /tmp/ccGmqTFt.s:320    .text:0000000000000188 .L0 
GAS LISTING /tmp/ccGmqTFt.s 			page 15


     /tmp/ccGmqTFt.s:328    .text:0000000000000190 .L0 
     /tmp/ccGmqTFt.s:329    .text:0000000000000190 .L0 
     /tmp/ccGmqTFt.s:331    .text:0000000000000194 .L0 
     /tmp/ccGmqTFt.s:334    .text:0000000000000198 .L0 
     /tmp/ccGmqTFt.s:336    .text:000000000000019c .L0 
     /tmp/ccGmqTFt.s:338    .text:00000000000001a0 .L0 
     /tmp/ccGmqTFt.s:341    .text:00000000000001a4 .L0 
     /tmp/ccGmqTFt.s:344    .text:00000000000001a8 .L0 
     /tmp/ccGmqTFt.s:352    .text:00000000000001b4 .L0 
     /tmp/ccGmqTFt.s:356    .text:00000000000001c0 .L0 
     /tmp/ccGmqTFt.s:357    .text:00000000000001c4 .L0 
     /tmp/ccGmqTFt.s:358    .text:00000000000001c4 .L0 
     /tmp/ccGmqTFt.s:360    .text:00000000000001c8 .L0 
     /tmp/ccGmqTFt.s:361    .text:00000000000001c8 .L0 
     /tmp/ccGmqTFt.s:363    .text:00000000000001cc .L0 
     /tmp/ccGmqTFt.s:365    .text:00000000000001d0 .L0 
     /tmp/ccGmqTFt.s:369    .text:00000000000001d4 .L0 
     /tmp/ccGmqTFt.s:373    .text:00000000000001d4 .L0 
     /tmp/ccGmqTFt.s:378    .text:00000000000001dc .L0 
     /tmp/ccGmqTFt.s:382    .text:00000000000001e4 .L0 
     /tmp/ccGmqTFt.s:388    .text:00000000000001e4 _ZN3Sem11sem_trywaitEv
     /tmp/ccGmqTFt.s:391    .text:00000000000001e4 .L0 
     /tmp/ccGmqTFt.s:393    .text:00000000000001e4 .L0 
     /tmp/ccGmqTFt.s:394    .text:00000000000001e8 .L0 
     /tmp/ccGmqTFt.s:396    .text:00000000000001ec .L0 
     /tmp/ccGmqTFt.s:398    .text:00000000000001f0 .L0 
     /tmp/ccGmqTFt.s:400    .text:00000000000001f0 .L0 
     /tmp/ccGmqTFt.s:402    .text:00000000000001f4 .L0 
     /tmp/ccGmqTFt.s:405    .text:00000000000001fc .L0 
     /tmp/ccGmqTFt.s:408    .text:0000000000000204 .L0 
     /tmp/ccGmqTFt.s:412    .text:0000000000000208 .L0 
     /tmp/ccGmqTFt.s:413    .text:000000000000020c .L0 
     /tmp/ccGmqTFt.s:414    .text:000000000000020c .L0 
     /tmp/ccGmqTFt.s:415    .text:000000000000020c .L0 
     /tmp/ccGmqTFt.s:417    .text:0000000000000210 .L0 
     /tmp/ccGmqTFt.s:421    .text:0000000000000214 .L0 
     /tmp/ccGmqTFt.s:423    .text:0000000000000214 .L0 
     /tmp/ccGmqTFt.s:424    .text:0000000000000214 .L0 
     /tmp/ccGmqTFt.s:426    .text:0000000000000218 .L0 
     /tmp/ccGmqTFt.s:427    .text:0000000000000218 .L0 
     /tmp/ccGmqTFt.s:430    .text:0000000000000220 .L0 
     /tmp/ccGmqTFt.s:437    .text:0000000000000220 .L0 
     /tmp/ccGmqTFt.s:177    .text:00000000000000d0 .L0 
     /tmp/ccGmqTFt.s:107    .text:0000000000000080 .L6
     /tmp/ccGmqTFt.s:135    .text:00000000000000a0 .L3
     /tmp/ccGmqTFt.s:93     .text:0000000000000068 .L5
     /tmp/ccGmqTFt.s:88     .text:0000000000000064 .L8
     /tmp/ccGmqTFt.s:208    .text:0000000000000108 .L14
     /tmp/ccGmqTFt.s:257    .text:0000000000000140 .L11
     /tmp/ccGmqTFt.s:191    .text:00000000000000f0 .L9
     /tmp/ccGmqTFt.s:246    .text:0000000000000134 .L12
     /tmp/ccGmqTFt.s:288    .text:0000000000000164 .L24
     /tmp/ccGmqTFt.s:286    .text:0000000000000160 .L21
     /tmp/ccGmqTFt.s:376    .text:00000000000001dc .L19
     /tmp/ccGmqTFt.s:368    .text:00000000000001d4 .L25
     /tmp/ccGmqTFt.s:339    .text:00000000000001a4 .L18
     /tmp/ccGmqTFt.s:348    .text:00000000000001b4 .L17
GAS LISTING /tmp/ccGmqTFt.s 			page 16


     /tmp/ccGmqTFt.s:420    .text:0000000000000214 .L30
     /tmp/ccGmqTFt.s:410    .text:0000000000000208 .L27
     /tmp/ccGmqTFt.s:1630   .debug_abbrev:0000000000000000 .Ldebug_abbrev0
     /tmp/ccGmqTFt.s:3136   .debug_str:00000000000004ec .LASF91
     /tmp/ccGmqTFt.s:3114   .debug_str:000000000000045d .LASF92
     /tmp/ccGmqTFt.s:3168   .debug_str:0000000000000698 .LASF93
     /tmp/ccGmqTFt.s:5      .text:0000000000000000 .Ltext0
     /tmp/ccGmqTFt.s:433    .text:0000000000000220 .Letext0
     /tmp/ccGmqTFt.s:2956   .debug_line:0000000000000000 .Ldebug_line0
     /tmp/ccGmqTFt.s:3100   .debug_str:000000000000041f .LASF0
     /tmp/ccGmqTFt.s:3154   .debug_str:000000000000061e .LASF94
     /tmp/ccGmqTFt.s:3070   .debug_str:000000000000031e .LASF95
     /tmp/ccGmqTFt.s:2980   .debug_str:00000000000000a1 .LASF96
     /tmp/ccGmqTFt.s:3060   .debug_str:00000000000002f0 .LASF1
     /tmp/ccGmqTFt.s:3144   .debug_str:00000000000005df .LASF4
     /tmp/ccGmqTFt.s:3112   .debug_str:0000000000000458 .LASF2
     /tmp/ccGmqTFt.s:3166   .debug_str:0000000000000693 .LASF3
     /tmp/ccGmqTFt.s:3076   .debug_str:0000000000000360 .LASF42
     /tmp/ccGmqTFt.s:3000   .debug_str:000000000000012c .LASF5
     /tmp/ccGmqTFt.s:3064   .debug_str:0000000000000308 .LASF6
     /tmp/ccGmqTFt.s:3038   .debug_str:000000000000026b .LASF7
     /tmp/ccGmqTFt.s:3132   .debug_str:00000000000004d0 .LASF9
     /tmp/ccGmqTFt.s:3042   .debug_str:0000000000000277 .LASF14
     /tmp/ccGmqTFt.s:3134   .debug_str:00000000000004e3 .LASF8
     /tmp/ccGmqTFt.s:3078   .debug_str:000000000000037f .LASF10
     /tmp/ccGmqTFt.s:2982   .debug_str:00000000000000b9 .LASF11
     /tmp/ccGmqTFt.s:3004   .debug_str:0000000000000148 .LASF12
     /tmp/ccGmqTFt.s:3138   .debug_str:00000000000005b0 .LASF13
     /tmp/ccGmqTFt.s:2958   .debug_str:0000000000000000 .LASF15
     /tmp/ccGmqTFt.s:2978   .debug_str:0000000000000097 .LASF16
     /tmp/ccGmqTFt.s:3052   .debug_str:00000000000002b1 .LASF17
     /tmp/ccGmqTFt.s:3090   .debug_str:00000000000003d6 .LASF18
     /tmp/ccGmqTFt.s:2968   .debug_str:0000000000000052 .LASF19
     /tmp/ccGmqTFt.s:3054   .debug_str:00000000000002cc .LASF20
     /tmp/ccGmqTFt.s:3162   .debug_str:0000000000000663 .LASF21
     /tmp/ccGmqTFt.s:2964   .debug_str:0000000000000038 .LASF22
     /tmp/ccGmqTFt.s:3156   .debug_str:0000000000000630 .LASF97
     /tmp/ccGmqTFt.s:2974   .debug_str:000000000000007e .LASF98
     /tmp/ccGmqTFt.s:3046   .debug_str:0000000000000297 .LASF23
     /tmp/ccGmqTFt.s:3058   .debug_str:00000000000002e3 .LASF24
     /tmp/ccGmqTFt.s:3086   .debug_str:00000000000003be .LASF25
     /tmp/ccGmqTFt.s:3048   .debug_str:000000000000029c .LASF26
     /tmp/ccGmqTFt.s:3044   .debug_str:000000000000028e .LASF27
     /tmp/ccGmqTFt.s:2992   .debug_str:0000000000000105 .LASF28
     /tmp/ccGmqTFt.s:3056   .debug_str:00000000000002d5 .LASF99
     /tmp/ccGmqTFt.s:3028   .debug_str:00000000000001fb .LASF100
     /tmp/ccGmqTFt.s:3006   .debug_str:0000000000000164 .LASF29
     /tmp/ccGmqTFt.s:3110   .debug_str:000000000000044c .LASF30
     /tmp/ccGmqTFt.s:3122   .debug_str:000000000000048e .LASF31
     /tmp/ccGmqTFt.s:3024   .debug_str:00000000000001d6 .LASF32
     /tmp/ccGmqTFt.s:3072   .debug_str:0000000000000332 .LASF33
     /tmp/ccGmqTFt.s:3034   .debug_str:000000000000022c .LASF34
     /tmp/ccGmqTFt.s:2962   .debug_str:000000000000002e .LASF35
     /tmp/ccGmqTFt.s:3022   .debug_str:00000000000001c1 .LASF36
     /tmp/ccGmqTFt.s:3066   .debug_str:000000000000030d .LASF37
     /tmp/ccGmqTFt.s:3140   .debug_str:00000000000005bc .LASF38
     /tmp/ccGmqTFt.s:3050   .debug_str:00000000000002a4 .LASF39
GAS LISTING /tmp/ccGmqTFt.s 			page 17


     /tmp/ccGmqTFt.s:3074   .debug_str:000000000000033e .LASF40
     /tmp/ccGmqTFt.s:3012   .debug_str:0000000000000185 .LASF101
     /tmp/ccGmqTFt.s:3082   .debug_str:00000000000003a9 .LASF102
     /tmp/ccGmqTFt.s:3016   .debug_str:0000000000000196 .LASF103
     /tmp/ccGmqTFt.s:2994   .debug_str:000000000000010c .LASF41
     /tmp/ccGmqTFt.s:3036   .debug_str:0000000000000243 .LASF43
     /tmp/ccGmqTFt.s:3080   .debug_str:000000000000039c .LASF44
     /tmp/ccGmqTFt.s:3094   .debug_str:00000000000003f4 .LASF45
     /tmp/ccGmqTFt.s:3062   .debug_str:00000000000002fa .LASF46
     /tmp/ccGmqTFt.s:3040   .debug_str:0000000000000270 .LASF48
     /tmp/ccGmqTFt.s:3088   .debug_str:00000000000003c4 .LASF47
     /tmp/ccGmqTFt.s:2970   .debug_str:000000000000006f .LASF49
     /tmp/ccGmqTFt.s:3096   .debug_str:0000000000000407 .LASF50
     /tmp/ccGmqTFt.s:3092   .debug_str:00000000000003e1 .LASF51
     /tmp/ccGmqTFt.s:3150   .debug_str:00000000000005fb .LASF52
     /tmp/ccGmqTFt.s:3026   .debug_str:00000000000001ed .LASF53
     /tmp/ccGmqTFt.s:3104   .debug_str:0000000000000433 .LASF54
     /tmp/ccGmqTFt.s:3142   .debug_str:00000000000005d0 .LASF55
     /tmp/ccGmqTFt.s:3124   .debug_str:0000000000000499 .LASF56
     /tmp/ccGmqTFt.s:2960   .debug_str:000000000000001e .LASF57
     /tmp/ccGmqTFt.s:2984   .debug_str:00000000000000c1 .LASF58
     /tmp/ccGmqTFt.s:3116   .debug_str:000000000000046d .LASF59
     /tmp/ccGmqTFt.s:3164   .debug_str:000000000000067d .LASF60
     /tmp/ccGmqTFt.s:3030   .debug_str:0000000000000214 .LASF61
     /tmp/ccGmqTFt.s:3018   .debug_str:00000000000001a9 .LASF62
     /tmp/ccGmqTFt.s:2998   .debug_str:0000000000000126 .LASF63
     /tmp/ccGmqTFt.s:3102   .debug_str:0000000000000429 .LASF64
     /tmp/ccGmqTFt.s:2996   .debug_str:000000000000011a .LASF104
     /tmp/ccGmqTFt.s:3158   .debug_str:0000000000000646 .LASF65
     /tmp/ccGmqTFt.s:3160   .debug_str:000000000000064f .LASF66
     /tmp/ccGmqTFt.s:3014   .debug_str:000000000000018d .LASF67
     /tmp/ccGmqTFt.s:3020   .debug_str:00000000000001ae .LASF68
     /tmp/ccGmqTFt.s:3130   .debug_str:00000000000004c6 .LASF69
     /tmp/ccGmqTFt.s:2976   .debug_str:0000000000000083 .LASF70
     /tmp/ccGmqTFt.s:2988   .debug_str:00000000000000dd .LASF71
     /tmp/ccGmqTFt.s:3032   .debug_str:0000000000000219 .LASF72
     /tmp/ccGmqTFt.s:3148   .debug_str:00000000000005f0 .LASF73
     /tmp/ccGmqTFt.s:3010   .debug_str:000000000000016f .LASF74
     /tmp/ccGmqTFt.s:3146   .debug_str:00000000000005e4 .LASF75
     /tmp/ccGmqTFt.s:3002   .debug_str:0000000000000131 .LASF76
     /tmp/ccGmqTFt.s:3008   .debug_str:0000000000000169 .LASF77
     /tmp/ccGmqTFt.s:2986   .debug_str:00000000000000cd .LASF78
     /tmp/ccGmqTFt.s:2972   .debug_str:0000000000000076 .LASF79
     /tmp/ccGmqTFt.s:2966   .debug_str:0000000000000040 .LASF105
     /tmp/ccGmqTFt.s:3108   .debug_str:0000000000000447 .LASF80
     /tmp/ccGmqTFt.s:2990   .debug_str:00000000000000e6 .LASF82
     /tmp/ccGmqTFt.s:3118   .debug_str:0000000000000483 .LASF81
     /tmp/ccGmqTFt.s:3152   .debug_str:000000000000060b .LASF83
     /tmp/ccGmqTFt.s:389    .text:00000000000001e4 .LFB26
     /tmp/ccGmqTFt.s:431    .text:0000000000000220 .LFE26
     /tmp/ccGmqTFt.s:2598   .debug_loc:0000000000000000 .LLST27
     /tmp/ccGmqTFt.s:273    .text:000000000000014c .LFB25
     /tmp/ccGmqTFt.s:383    .text:00000000000001e4 .LFE25
     /tmp/ccGmqTFt.s:2623   .debug_loc:0000000000000062 .LLST20
     /tmp/ccGmqTFt.s:290    .text:0000000000000164 .LBB52
     /tmp/ccGmqTFt.s:300    .text:0000000000000170 .LBE52
     /tmp/ccGmqTFt.s:2641   .debug_loc:00000000000000ae .LLST21
GAS LISTING /tmp/ccGmqTFt.s 			page 18


     /tmp/ccGmqTFt.s:316    .text:0000000000000188 .LBB54
     /tmp/ccGmqTFt.s:324    .text:0000000000000190 .LBE54
     /tmp/ccGmqTFt.s:2650   .debug_loc:00000000000000d3 .LLST22
     /tmp/ccGmqTFt.s:2658   .debug_loc:00000000000000f7 .LLST23
     /tmp/ccGmqTFt.s:326    .text:0000000000000190 .LBB56
     /tmp/ccGmqTFt.s:2936   .debug_ranges:0000000000000000 .Ldebug_ranges0
     /tmp/ccGmqTFt.s:2665   .debug_loc:000000000000011a .LLST24
     /tmp/ccGmqTFt.s:2689   .debug_loc:000000000000016c .LLST25
     /tmp/ccGmqTFt.s:2700   .debug_loc:00000000000001a2 .LLST26
     /tmp/ccGmqTFt.s:347    .text:00000000000001b4 .LVL36
     /tmp/ccGmqTFt.s:354    .text:00000000000001c0 .LVL37
     /tmp/ccGmqTFt.s:159    .text:00000000000000b8 .LFB24
     /tmp/ccGmqTFt.s:267    .text:000000000000014c .LFE24
     /tmp/ccGmqTFt.s:2707   .debug_loc:00000000000001c5 .LLST10
     /tmp/ccGmqTFt.s:3106   .debug_str:0000000000000442 .LASF84
     /tmp/ccGmqTFt.s:2729   .debug_loc:0000000000000224 .LLST11
     /tmp/ccGmqTFt.s:213    .text:000000000000010c .LBB44
     /tmp/ccGmqTFt.s:221    .text:0000000000000110 .LBE44
     /tmp/ccGmqTFt.s:2740   .debug_loc:000000000000025a .LLST12
     /tmp/ccGmqTFt.s:2748   .debug_loc:000000000000027e .LLST13
     /tmp/ccGmqTFt.s:223    .text:0000000000000110 .LBB46
     /tmp/ccGmqTFt.s:2755   .debug_loc:00000000000002a1 .LLST14
     /tmp/ccGmqTFt.s:2766   .debug_loc:00000000000002d7 .LLST15
     /tmp/ccGmqTFt.s:2781   .debug_loc:0000000000000311 .LLST16
     /tmp/ccGmqTFt.s:230    .text:000000000000011c .LBB48
     /tmp/ccGmqTFt.s:237    .text:0000000000000124 .LBE48
     /tmp/ccGmqTFt.s:2792   .debug_loc:0000000000000347 .LLST17
     /tmp/ccGmqTFt.s:2800   .debug_loc:000000000000036b .LLST18
     /tmp/ccGmqTFt.s:2807   .debug_loc:000000000000038e .LLST19
     /tmp/ccGmqTFt.s:229    .text:000000000000011c .LVL23
     /tmp/ccGmqTFt.s:253    .text:000000000000013c .LVL26
     /tmp/ccGmqTFt.s:67     .text:0000000000000044 .LFB23
     /tmp/ccGmqTFt.s:153    .text:00000000000000b8 .LFE23
     /tmp/ccGmqTFt.s:2814   .debug_loc:00000000000003b1 .LLST4
     /tmp/ccGmqTFt.s:2832   .debug_loc:00000000000003fd .LLST5
     /tmp/ccGmqTFt.s:89     .text:0000000000000064 .LBB38
     /tmp/ccGmqTFt.s:2844   .debug_loc:0000000000000434 .LLST6
     /tmp/ccGmqTFt.s:2859   .debug_loc:000000000000046e .LLST7
     /tmp/ccGmqTFt.s:2870   .debug_loc:00000000000004a4 .LLST8
     /tmp/ccGmqTFt.s:99     .text:0000000000000074 .LVL9
     /tmp/ccGmqTFt.s:110    .text:0000000000000080 .LBB41
     /tmp/ccGmqTFt.s:120    .text:000000000000008c .LBE41
     /tmp/ccGmqTFt.s:2877   .debug_loc:00000000000004c7 .LLST9
     /tmp/ccGmqTFt.s:106    .text:0000000000000080 .LVL10
     /tmp/ccGmqTFt.s:10     .text:0000000000000000 .LFB22
     /tmp/ccGmqTFt.s:61     .text:0000000000000044 .LFE22
     /tmp/ccGmqTFt.s:2886   .debug_loc:00000000000004ec .LLST0
     /tmp/ccGmqTFt.s:32     .text:0000000000000024 .LBB34
     /tmp/ccGmqTFt.s:48     .text:0000000000000030 .LBE34
     /tmp/ccGmqTFt.s:2900   .debug_loc:0000000000000525 .LLST1
     /tmp/ccGmqTFt.s:2907   .debug_loc:0000000000000548 .LLST2
     /tmp/ccGmqTFt.s:38     .text:0000000000000028 .LBB36
     /tmp/ccGmqTFt.s:46     .text:0000000000000030 .LBE36
     /tmp/ccGmqTFt.s:2914   .debug_loc:000000000000056b .LLST3
     /tmp/ccGmqTFt.s:31     .text:0000000000000024 .LVL2
     /tmp/ccGmqTFt.s:3098   .debug_str:000000000000041a .LASF85
     /tmp/ccGmqTFt.s:3084   .debug_str:00000000000003b2 .LASF86
GAS LISTING /tmp/ccGmqTFt.s 			page 19


     /tmp/ccGmqTFt.s:3068   .debug_str:0000000000000317 .LASF87
     /tmp/ccGmqTFt.s:3126   .debug_str:00000000000004a9 .LASF89
     /tmp/ccGmqTFt.s:3120   .debug_str:0000000000000488 .LASF88
     /tmp/ccGmqTFt.s:3128   .debug_str:00000000000004b9 .LASF90
     /tmp/ccGmqTFt.s:392    .text:00000000000001e4 .LVL40
     /tmp/ccGmqTFt.s:409    .text:0000000000000208 .LVL41
     /tmp/ccGmqTFt.s:419    .text:0000000000000214 .LVL42
     /tmp/ccGmqTFt.s:428    .text:000000000000021c .LVL43
     /tmp/ccGmqTFt.s:276    .text:000000000000014c .LVL28
     /tmp/ccGmqTFt.s:345    .text:00000000000001ac .LVL35
     /tmp/ccGmqTFt.s:367    .text:00000000000001d4 .LVL38
     /tmp/ccGmqTFt.s:289    .text:0000000000000164 .LVL29
     /tmp/ccGmqTFt.s:298    .text:0000000000000170 .LVL30
     /tmp/ccGmqTFt.s:315    .text:0000000000000188 .LVL31
     /tmp/ccGmqTFt.s:322    .text:0000000000000190 .LVL32
     /tmp/ccGmqTFt.s:332    .text:0000000000000198 .LVL33
     /tmp/ccGmqTFt.s:375    .text:00000000000001dc .LVL39
     /tmp/ccGmqTFt.s:342    .text:00000000000001a8 .LVL34
     /tmp/ccGmqTFt.s:162    .text:00000000000000b8 .LVL15
     /tmp/ccGmqTFt.s:190    .text:00000000000000f0 .LVL17
     /tmp/ccGmqTFt.s:207    .text:0000000000000108 .LVL19
     /tmp/ccGmqTFt.s:227    .text:0000000000000114 .LVL22
     /tmp/ccGmqTFt.s:179    .text:00000000000000dc .LVL16
     /tmp/ccGmqTFt.s:203    .text:0000000000000100 .LVL18
     /tmp/ccGmqTFt.s:212    .text:000000000000010c .LVL20
     /tmp/ccGmqTFt.s:219    .text:0000000000000110 .LVL21
     /tmp/ccGmqTFt.s:247    .text:0000000000000134 .LVL25
     /tmp/ccGmqTFt.s:256    .text:0000000000000140 .LVL27
     /tmp/ccGmqTFt.s:235    .text:0000000000000124 .LVL24
     /tmp/ccGmqTFt.s:70     .text:0000000000000044 .LVL5
     /tmp/ccGmqTFt.s:87     .text:0000000000000064 .LVL7
     /tmp/ccGmqTFt.s:146    .text:00000000000000ac .LVL14
     /tmp/ccGmqTFt.s:85     .text:0000000000000060 .LVL6
     /tmp/ccGmqTFt.s:124    .text:0000000000000090 .LVL12
     /tmp/ccGmqTFt.s:134    .text:00000000000000a0 .LVL13
     /tmp/ccGmqTFt.s:96     .text:000000000000006c .LVL8
     /tmp/ccGmqTFt.s:118    .text:000000000000008c .LVL11
     /tmp/ccGmqTFt.s:14     .text:0000000000000000 .LVL0
     /tmp/ccGmqTFt.s:29     .text:000000000000001c .LVL1
     /tmp/ccGmqTFt.s:44     .text:0000000000000030 .LVL4
     /tmp/ccGmqTFt.s:37     .text:0000000000000028 .LVL3
     /tmp/ccGmqTFt.s:438    .debug_info:0000000000000000 .Ldebug_info0
     /tmp/ccGmqTFt.s:101    .text:0000000000000074 .LBE38
     /tmp/ccGmqTFt.s:125    .text:0000000000000090 .LBB43
     /tmp/ccGmqTFt.s:137    .text:00000000000000a0 .LBE43
     /tmp/ccGmqTFt.s:249    .text:0000000000000134 .LBE46
     /tmp/ccGmqTFt.s:258    .text:0000000000000140 .LBB51
     /tmp/ccGmqTFt.s:265    .text:000000000000014c .LBE51
     /tmp/ccGmqTFt.s:350    .text:00000000000001b4 .LBE56
     /tmp/ccGmqTFt.s:370    .text:00000000000001d4 .LBB59
     /tmp/ccGmqTFt.s:381    .text:00000000000001e4 .LBE59

UNDEFINED SYMBOLS
_Znwm
_ZdlPv
_ZN9Scheduler3putEP3TCB
_ZN3TCB7runningE
GAS LISTING /tmp/ccGmqTFt.s 			page 20


_ZN3TCB8dispatchEv
