GAS LISTING /tmp/cc7g7oiR.s 			page 1


   1              		.file	"syscall_c.cpp"
   2              		.option pic
   3              		.option norelax
   4              		.text
   5              	.Ltext0:
   6              		.align	2
   7              		.globl	_Z4putcc
   9              	_Z4putcc:
  10              	.LFB0:
  11              		.file 1 "src/syscall_c.cpp"
   1:src/syscall_c.cpp **** #include "../h/syscall_c.h"
   2:src/syscall_c.cpp **** #include "../h/print.hpp"
   3:src/syscall_c.cpp **** 
   4:src/syscall_c.cpp **** void putc(char c){
  12              		.loc 1 4 18
  13              		.cfi_startproc
  14              	.LVL0:
  15 0000 130101FF 		addi	sp,sp,-16
  16              		.cfi_def_cfa_offset 16
  17 0004 23348100 		sd	s0,8(sp)
  18              		.cfi_offset 8, -8
  19 0008 13040101 		addi	s0,sp,16
  20              		.cfi_def_cfa 8, 0
   5:src/syscall_c.cpp ****     asm volatile ("mv a1, %0":: "r"(c));
  21              		.loc 1 5 5
  22              		.loc 1 5 40 is_stmt 0
  23              	#APP
  24              	# 5 "src/syscall_c.cpp" 1
   6              	    //stavljamo arg u a1
   7:src/syscall_c.cpp **** 
   8:src/syscall_c.cpp ****     asm volatile("li a0, %0":: "i"(0x42));
  25              		mv a1, a0
  26              	# 0 "" 2
  27              		.loc 1 8 5 is_stmt 1
  28              		.loc 1 8 42 is_stmt 0
  29              	# 8 "src/syscall_c.cpp" 1
   9              	    //u a0 stavljen sis poziv
  10:src/syscall_c.cpp **** 
  11:src/syscall_c.cpp ****     asm volatile ("ecall");
  30              		li a0, 66
  31              	# 0 "" 2
  32              		.loc 1 11 5 is_stmt 1
  33              		.loc 1 11 27 is_stmt 0
  34              	# 11 "src/syscall_c.cpp" 1
  12              	}
  35              		ecall
  36              	# 0 "" 2
  37              		.loc 1 12 1
  38              	#NO_APP
  39 0018 03348100 		ld	s0,8(sp)
  40              		.cfi_restore 8
  41              		.cfi_def_cfa 2, 16
  42 001c 13010101 		addi	sp,sp,16
  43              		.cfi_def_cfa_offset 0
  44 0020 67800000 		jr	ra
  45              		.cfi_endproc
  46              	.LFE0:
GAS LISTING /tmp/cc7g7oiR.s 			page 2


  48              		.align	2
  49              		.globl	_Z4getcv
  51              	_Z4getcv:
  52              	.LFB1:
  13:src/syscall_c.cpp **** 
  14:src/syscall_c.cpp **** char getc(){
  53              		.loc 1 14 12 is_stmt 1
  54              		.cfi_startproc
  55 0024 130101FF 		addi	sp,sp,-16
  56              		.cfi_def_cfa_offset 16
  57 0028 23348100 		sd	s0,8(sp)
  58              		.cfi_offset 8, -8
  59 002c 13040101 		addi	s0,sp,16
  60              		.cfi_def_cfa 8, 0
  15:src/syscall_c.cpp ****     char c;
  61              		.loc 1 15 5
  16:src/syscall_c.cpp ****     asm volatile("li a0, %0":: "i"(0x41));//u a0 stavljen sis poziv
  62              		.loc 1 16 5
  63              		.loc 1 16 42 is_stmt 0
  64              	#APP
  65              	# 16 "src/syscall_c.cpp" 1
  17              	    asm volatile("ecall");
  66              		li a0, 65
  67              	# 0 "" 2
  68              		.loc 1 17 5 is_stmt 1
  69              		.loc 1 17 26 is_stmt 0
  70              	# 17 "src/syscall_c.cpp" 1
  18              	
  19:src/syscall_c.cpp ****     asm volatile ("mv %0, a0" : "=r"(c)); //u a0 se posle sis poziva nalazi povratna vrednost
  71              		ecall
  72              	# 0 "" 2
  73              		.loc 1 19 5 is_stmt 1
  74              		.loc 1 19 41 is_stmt 0
  75              	# 19 "src/syscall_c.cpp" 1
  20              	    return c;
  76              		mv a0, a0
  77              	# 0 "" 2
  78              	.LVL1:
  79              		.loc 1 20 5 is_stmt 1
  21:src/syscall_c.cpp **** }
  80              		.loc 1 21 1 is_stmt 0
  81              	#NO_APP
  82 003c 1375F50F 		andi	a0,a0,0xff
  83 0040 03348100 		ld	s0,8(sp)
  84              		.cfi_restore 8
  85              		.cfi_def_cfa 2, 16
  86 0044 13010101 		addi	sp,sp,16
  87              		.cfi_def_cfa_offset 0
  88 0048 67800000 		jr	ra
  89              		.cfi_endproc
  90              	.LFE1:
  92              		.align	2
  93              		.globl	_Z9mem_allocm
  95              	_Z9mem_allocm:
  96              	.LFB2:
  22:src/syscall_c.cpp **** 
  23:src/syscall_c.cpp **** void* mem_alloc(size_t size){
GAS LISTING /tmp/cc7g7oiR.s 			page 3


  97              		.loc 1 23 29 is_stmt 1
  98              		.cfi_startproc
  99              	.LVL2:
 100 004c 130101FF 		addi	sp,sp,-16
 101              		.cfi_def_cfa_offset 16
 102 0050 23348100 		sd	s0,8(sp)
 103              		.cfi_offset 8, -8
 104 0054 13040101 		addi	s0,sp,16
 105              		.cfi_def_cfa 8, 0
  24:src/syscall_c.cpp ****     size_t newSize = (size % MEM_BLOCK_SIZE) ? size / MEM_BLOCK_SIZE +1 : size / MEM_BLOCK_SIZE;
 106              		.loc 1 24 5
 107              		.loc 1 24 28 is_stmt 0
 108 0058 9377F503 		andi	a5,a0,63
 109              		.loc 1 24 46
 110 005c 63840702 		beqz	a5,.L6
 111              		.loc 1 24 53 discriminator 1
 112 0060 13556500 		srli	a0,a0,6
 113              	.LVL3:
 114              		.loc 1 24 46 discriminator 1
 115 0064 13051500 		addi	a0,a0,1
 116              	.L7:
 117              	.LVL4:
  25:src/syscall_c.cpp ****     asm volatile("mv a1, %0":: "r"(newSize));
 118              		.loc 1 25 5 is_stmt 1 discriminator 4
 119              		.loc 1 25 45 is_stmt 0 discriminator 4
 120              	#APP
 121              	# 25 "src/syscall_c.cpp" 1
  26              	    asm volatile ("li a0, %0" :: "i"(0x01));
 122              		mv a1, a0
 123              	# 0 "" 2
 124              		.loc 1 26 5 is_stmt 1 discriminator 4
 125              		.loc 1 26 44 is_stmt 0 discriminator 4
 126              	# 26 "src/syscall_c.cpp" 1
  27              	    asm volatile("ecall");
 127              		li a0, 1
 128              	# 0 "" 2
 129              		.loc 1 27 5 is_stmt 1 discriminator 4
 130              		.loc 1 27 26 is_stmt 0 discriminator 4
 131              	# 27 "src/syscall_c.cpp" 1
  28              	    void* adr;
 132              		ecall
 133              	# 0 "" 2
 134              		.loc 1 28 5 is_stmt 1 discriminator 4
  29:src/syscall_c.cpp ****     asm volatile ("mv %0, a0" : "=r"(adr));
 135              		.loc 1 29 5 discriminator 4
 136              		.loc 1 29 43 is_stmt 0 discriminator 4
 137              	# 29 "src/syscall_c.cpp" 1
  30              	    return adr;
 138              		mv a0, a0
 139              	# 0 "" 2
 140              	.LVL5:
 141              		.loc 1 30 5 is_stmt 1 discriminator 4
  31:src/syscall_c.cpp **** }
 142              		.loc 1 31 1 is_stmt 0 discriminator 4
 143              	#NO_APP
 144 0078 03348100 		ld	s0,8(sp)
 145              		.cfi_remember_state
GAS LISTING /tmp/cc7g7oiR.s 			page 4


 146              		.cfi_restore 8
 147              		.cfi_def_cfa 2, 16
 148 007c 13010101 		addi	sp,sp,16
 149              		.cfi_def_cfa_offset 0
 150 0080 67800000 		jr	ra
 151              	.LVL6:
 152              	.L6:
 153              		.cfi_restore_state
  24:src/syscall_c.cpp ****     asm volatile("mv a1, %0":: "r"(newSize));
 154              		.loc 1 24 46 discriminator 2
 155 0084 13556500 		srli	a0,a0,6
 156              	.LVL7:
 157 0088 6FF01FFE 		j	.L7
 158              		.cfi_endproc
 159              	.LFE2:
 161              		.align	2
 162              		.globl	_Z8mem_freePv
 164              	_Z8mem_freePv:
 165              	.LFB3:
  32:src/syscall_c.cpp **** 
  33:src/syscall_c.cpp **** int mem_free(void* adr){
 166              		.loc 1 33 24 is_stmt 1
 167              		.cfi_startproc
 168              	.LVL8:
 169 008c 130101FF 		addi	sp,sp,-16
 170              		.cfi_def_cfa_offset 16
 171 0090 23348100 		sd	s0,8(sp)
 172              		.cfi_offset 8, -8
 173 0094 13040101 		addi	s0,sp,16
 174              		.cfi_def_cfa 8, 0
  34:src/syscall_c.cpp ****     asm volatile("mv a1, %0" :: "r"(adr));
 175              		.loc 1 34 5
 176              		.loc 1 34 42 is_stmt 0
 177              	#APP
 178              	# 34 "src/syscall_c.cpp" 1
  35              	    asm volatile ("li a0, %0" :: "i"(0x02));
 179              		mv a1, a0
 180              	# 0 "" 2
 181              		.loc 1 35 5 is_stmt 1
 182              		.loc 1 35 44 is_stmt 0
 183              	# 35 "src/syscall_c.cpp" 1
  36              	    asm volatile("ecall");
 184              		li a0, 2
 185              	# 0 "" 2
 186              		.loc 1 36 5 is_stmt 1
 187              		.loc 1 36 26 is_stmt 0
 188              	# 36 "src/syscall_c.cpp" 1
  37              	    int ret;
 189              		ecall
 190              	# 0 "" 2
 191              		.loc 1 37 5 is_stmt 1
  38:src/syscall_c.cpp ****     asm volatile("mv %0, a0" : "=r"(ret));
 192              		.loc 1 38 5
 193              		.loc 1 38 42 is_stmt 0
 194              	# 38 "src/syscall_c.cpp" 1
  39              	    return ret;
 195              		mv a0, a0
GAS LISTING /tmp/cc7g7oiR.s 			page 5


 196              	# 0 "" 2
 197              	.LVL9:
 198              		.loc 1 39 5 is_stmt 1
  40:src/syscall_c.cpp **** }
 199              		.loc 1 40 1 is_stmt 0
 200              	#NO_APP
 201 00a8 1B050500 		sext.w	a0,a0
 202 00ac 03348100 		ld	s0,8(sp)
 203              		.cfi_restore 8
 204              		.cfi_def_cfa 2, 16
 205 00b0 13010101 		addi	sp,sp,16
 206              		.cfi_def_cfa_offset 0
 207 00b4 67800000 		jr	ra
 208              		.cfi_endproc
 209              	.LFE3:
 211              		.align	2
 212              		.globl	_Z13thread_createPP3TCBPFvPvES2_
 214              	_Z13thread_createPP3TCBPFvPvES2_:
 215              	.LFB4:
  41:src/syscall_c.cpp **** 
  42:src/syscall_c.cpp **** int thread_create(thread_t* handle, void(*start_routine)(void*), void* arg){
 216              		.loc 1 42 76 is_stmt 1
 217              		.cfi_startproc
 218              	.LVL10:
  43:src/syscall_c.cpp ****     if(!handle) return -1;
 219              		.loc 1 43 5
 220 00b8 63000508 		beqz	a0,.L14
  42:src/syscall_c.cpp ****     if(!handle) return -1;
 221              		.loc 1 42 76 is_stmt 0
 222 00bc 130101FD 		addi	sp,sp,-48
 223              		.cfi_def_cfa_offset 48
 224 00c0 23341102 		sd	ra,40(sp)
 225 00c4 23308102 		sd	s0,32(sp)
 226 00c8 233C9100 		sd	s1,24(sp)
 227 00cc 23382101 		sd	s2,16(sp)
 228 00d0 23343101 		sd	s3,8(sp)
 229              		.cfi_offset 1, -8
 230              		.cfi_offset 8, -16
 231              		.cfi_offset 9, -24
 232              		.cfi_offset 18, -32
 233              		.cfi_offset 19, -40
 234 00d4 13040103 		addi	s0,sp,48
 235              		.cfi_def_cfa 8, 0
 236 00d8 93040500 		mv	s1,a0
 237 00dc 13890500 		mv	s2,a1
 238 00e0 93090600 		mv	s3,a2
  44:src/syscall_c.cpp ****     //alokacija steka i proslednjivanje kroz registre
  45:src/syscall_c.cpp ****     void* stek = start_routine ? mem_alloc(DEFAULT_STACK_SIZE) : nullptr;
 239              		.loc 1 45 5 is_stmt 1
 240              		.loc 1 45 32 is_stmt 0
 241 00e4 63860504 		beqz	a1,.L15
 242              		.loc 1 45 43 discriminator 1
 243 00e8 37150000 		li	a0,4096
 244              	.LVL11:
 245 00ec 97000000 		call	_Z9mem_allocm
 245      E7800000 
 246              	.LVL12:
GAS LISTING /tmp/cc7g7oiR.s 			page 6


 247              	.L13:
  46:src/syscall_c.cpp ****     asm volatile("mv a4, %0" :: "r"(stek));
 248              		.loc 1 46 5 is_stmt 1 discriminator 4
 249              		.loc 1 46 43 is_stmt 0 discriminator 4
 250              	#APP
 251              	# 46 "src/syscall_c.cpp" 1
  47              	
  48:src/syscall_c.cpp ****     //smestanje arg na stek
  49:src/syscall_c.cpp ****     asm volatile("mv a3, %0" :: "r"(arg));
 252              		mv a4, a0
 253              	# 0 "" 2
 254              		.loc 1 49 5 is_stmt 1 discriminator 4
 255              		.loc 1 49 42 is_stmt 0 discriminator 4
 256              	# 49 "src/syscall_c.cpp" 1
  50              	    asm volatile("mv a2, %0" :: "r"(start_routine));
 257              		mv a3, s3
 258              	# 0 "" 2
 259              		.loc 1 50 5 is_stmt 1 discriminator 4
 260              		.loc 1 50 52 is_stmt 0 discriminator 4
 261              	# 50 "src/syscall_c.cpp" 1
  51              	    asm volatile("mv a1, %0" :: "r"(handle));
 262              		mv a2, s2
 263              	# 0 "" 2
 264              		.loc 1 51 5 is_stmt 1 discriminator 4
 265              		.loc 1 51 45 is_stmt 0 discriminator 4
 266              	# 51 "src/syscall_c.cpp" 1
  52              	
  53:src/syscall_c.cpp ****     //pozivanje sist. poziva
  54:src/syscall_c.cpp ****     asm volatile ("li a0, %0" :: "i"(0x11));
 267              		mv a1, s1
 268              	# 0 "" 2
 269              		.loc 1 54 5 is_stmt 1 discriminator 4
 270              		.loc 1 54 44 is_stmt 0 discriminator 4
 271              	# 54 "src/syscall_c.cpp" 1
  55              	    asm volatile("ecall");
 272              		li a0, 17
 273              	# 0 "" 2
 274              		.loc 1 55 5 is_stmt 1 discriminator 4
 275              		.loc 1 55 26 is_stmt 0 discriminator 4
 276              	# 55 "src/syscall_c.cpp" 1
  56              	
  57:src/syscall_c.cpp ****     //dohvatanje i vracanje povratne vrednosti
  58:src/syscall_c.cpp ****     int povrVrednost;
 277              		ecall
 278              	# 0 "" 2
 279              		.loc 1 58 5 is_stmt 1 discriminator 4
  59:src/syscall_c.cpp ****     asm volatile("mv %0, a0" : "=r"(povrVrednost));
 280              		.loc 1 59 5 discriminator 4
 281              		.loc 1 59 51 is_stmt 0 discriminator 4
 282              	# 59 "src/syscall_c.cpp" 1
  60              	    return povrVrednost;
 283              		mv a0, a0
 284              	# 0 "" 2
 285              	.LVL13:
 286              	#NO_APP
 287 0110 1B050500 		sext.w	a0,a0
 288              	.LVL14:
GAS LISTING /tmp/cc7g7oiR.s 			page 7


 289              		.loc 1 60 5 is_stmt 1 discriminator 4
  61:src/syscall_c.cpp **** }
 290              		.loc 1 61 1 is_stmt 0 discriminator 4
 291 0114 83308102 		ld	ra,40(sp)
 292              		.cfi_remember_state
 293              		.cfi_restore 1
 294 0118 03340102 		ld	s0,32(sp)
 295              		.cfi_restore 8
 296              		.cfi_def_cfa 2, 48
 297 011c 83348101 		ld	s1,24(sp)
 298              		.cfi_restore 9
 299              	.LVL15:
 300 0120 03390101 		ld	s2,16(sp)
 301              		.cfi_restore 18
 302              	.LVL16:
 303 0124 83398100 		ld	s3,8(sp)
 304              		.cfi_restore 19
 305              	.LVL17:
 306 0128 13010103 		addi	sp,sp,48
 307              		.cfi_def_cfa_offset 0
 308 012c 67800000 		jr	ra
 309              	.LVL18:
 310              	.L15:
 311              		.cfi_restore_state
  45:src/syscall_c.cpp ****     asm volatile("mv a4, %0" :: "r"(stek));
 312              		.loc 1 45 32
 313 0130 13050000 		li	a0,0
 314 0134 6FF01FFC 		j	.L13
 315              	.LVL19:
 316              	.L14:
 317              		.cfi_def_cfa_register 2
 318              		.cfi_restore 1
 319              		.cfi_restore 8
 320              		.cfi_restore 9
 321              		.cfi_restore 18
 322              		.cfi_restore 19
  43:src/syscall_c.cpp ****     //alokacija steka i proslednjivanje kroz registre
 323              		.loc 1 43 25
 324 0138 1305F0FF 		li	a0,-1
 325              	.LVL20:
 326              		.loc 1 61 1
 327 013c 67800000 		ret
 328              		.cfi_endproc
 329              	.LFE4:
 331              		.align	2
 332              		.globl	_Z11thread_exitv
 334              	_Z11thread_exitv:
 335              	.LFB5:
  62:src/syscall_c.cpp **** 
  63:src/syscall_c.cpp **** int thread_exit(){
 336              		.loc 1 63 18 is_stmt 1
 337              		.cfi_startproc
 338 0140 130101FF 		addi	sp,sp,-16
 339              		.cfi_def_cfa_offset 16
 340 0144 23348100 		sd	s0,8(sp)
 341              		.cfi_offset 8, -8
 342 0148 13040101 		addi	s0,sp,16
GAS LISTING /tmp/cc7g7oiR.s 			page 8


 343              		.cfi_def_cfa 8, 0
  64:src/syscall_c.cpp ****     asm volatile("li a0, %0" :: "i"(0x12));
 344              		.loc 1 64 5
 345              		.loc 1 64 43 is_stmt 0
 346              	#APP
 347              	# 64 "src/syscall_c.cpp" 1
  65              	    asm volatile("ecall");
 348              		li a0, 18
 349              	# 0 "" 2
 350              		.loc 1 65 5 is_stmt 1
 351              		.loc 1 65 26 is_stmt 0
 352              	# 65 "src/syscall_c.cpp" 1
  66              	    return 0;
 353              		ecall
 354              	# 0 "" 2
 355              		.loc 1 66 5 is_stmt 1
  67:src/syscall_c.cpp **** }
 356              		.loc 1 67 1 is_stmt 0
 357              	#NO_APP
 358 0154 13050000 		li	a0,0
 359 0158 03348100 		ld	s0,8(sp)
 360              		.cfi_restore 8
 361              		.cfi_def_cfa 2, 16
 362 015c 13010101 		addi	sp,sp,16
 363              		.cfi_def_cfa_offset 0
 364 0160 67800000 		jr	ra
 365              		.cfi_endproc
 366              	.LFE5:
 368              		.align	2
 369              		.globl	_Z15thread_dispatchv
 371              	_Z15thread_dispatchv:
 372              	.LFB6:
  68:src/syscall_c.cpp **** 
  69:src/syscall_c.cpp **** void thread_dispatch(){
 373              		.loc 1 69 23 is_stmt 1
 374              		.cfi_startproc
 375 0164 130101FF 		addi	sp,sp,-16
 376              		.cfi_def_cfa_offset 16
 377 0168 23348100 		sd	s0,8(sp)
 378              		.cfi_offset 8, -8
 379 016c 13040101 		addi	s0,sp,16
 380              		.cfi_def_cfa 8, 0
  70:src/syscall_c.cpp ****     asm volatile("li a0, %0" :: "i"(0x13));
 381              		.loc 1 70 5
 382              		.loc 1 70 43 is_stmt 0
 383              	#APP
 384              	# 70 "src/syscall_c.cpp" 1
  71              	    asm volatile("ecall");
 385              		li a0, 19
 386              	# 0 "" 2
 387              		.loc 1 71 5 is_stmt 1
 388              		.loc 1 71 26 is_stmt 0
 389              	# 71 "src/syscall_c.cpp" 1
  72              	}
 390              		ecall
 391              	# 0 "" 2
 392              		.loc 1 72 1
GAS LISTING /tmp/cc7g7oiR.s 			page 9


 393              	#NO_APP
 394 0178 03348100 		ld	s0,8(sp)
 395              		.cfi_restore 8
 396              		.cfi_def_cfa 2, 16
 397 017c 13010101 		addi	sp,sp,16
 398              		.cfi_def_cfa_offset 0
 399 0180 67800000 		jr	ra
 400              		.cfi_endproc
 401              	.LFE6:
 403              		.align	2
 404              		.globl	_Z10time_sleepm
 406              	_Z10time_sleepm:
 407              	.LFB7:
  73:src/syscall_c.cpp **** 
  74:src/syscall_c.cpp **** int time_sleep(time_t time)
  75:src/syscall_c.cpp **** {
 408              		.loc 1 75 1 is_stmt 1
 409              		.cfi_startproc
 410              	.LVL21:
 411 0184 130101FF 		addi	sp,sp,-16
 412              		.cfi_def_cfa_offset 16
 413 0188 23348100 		sd	s0,8(sp)
 414              		.cfi_offset 8, -8
 415 018c 13040101 		addi	s0,sp,16
 416              		.cfi_def_cfa 8, 0
  76:src/syscall_c.cpp ****     return -1;
 417              		.loc 1 76 5
  77:src/syscall_c.cpp **** }
 418              		.loc 1 77 1 is_stmt 0
 419 0190 1305F0FF 		li	a0,-1
 420              	.LVL22:
 421 0194 03348100 		ld	s0,8(sp)
 422              		.cfi_restore 8
 423              		.cfi_def_cfa 2, 16
 424 0198 13010101 		addi	sp,sp,16
 425              		.cfi_def_cfa_offset 0
 426 019c 67800000 		jr	ra
 427              		.cfi_endproc
 428              	.LFE7:
 430              		.align	2
 431              		.globl	_Z8sem_openPP4_semj
 433              	_Z8sem_openPP4_semj:
 434              	.LFB8:
  78:src/syscall_c.cpp **** 
  79:src/syscall_c.cpp **** int sem_open(sem_t* handle, unsigned val) {
 435              		.loc 1 79 43 is_stmt 1
 436              		.cfi_startproc
 437              	.LVL23:
 438 01a0 130101FF 		addi	sp,sp,-16
 439              		.cfi_def_cfa_offset 16
 440 01a4 23348100 		sd	s0,8(sp)
 441              		.cfi_offset 8, -8
 442 01a8 13040101 		addi	s0,sp,16
 443              		.cfi_def_cfa 8, 0
  80:src/syscall_c.cpp ****     asm volatile("mv a2, %0" :: "r"(val));
 444              		.loc 1 80 5
 445              		.loc 1 80 42 is_stmt 0
GAS LISTING /tmp/cc7g7oiR.s 			page 10


 446              	#APP
 447              	# 80 "src/syscall_c.cpp" 1
  81              	    asm volatile("mv a1, %0" :: "r"(handle));
 448              		mv a2, a1
 449              	# 0 "" 2
 450              		.loc 1 81 5 is_stmt 1
 451              		.loc 1 81 45 is_stmt 0
 452              	# 81 "src/syscall_c.cpp" 1
  82              	
  83:src/syscall_c.cpp ****     asm volatile("li a0, %0" :: "i"(0x21));
 453              		mv a1, a0
 454              	# 0 "" 2
 455              		.loc 1 83 5 is_stmt 1
 456              		.loc 1 83 43 is_stmt 0
 457              	# 83 "src/syscall_c.cpp" 1
  84              	    asm volatile("ecall");
 458              		li a0, 33
 459              	# 0 "" 2
 460              		.loc 1 84 5 is_stmt 1
 461              		.loc 1 84 26 is_stmt 0
 462              	# 84 "src/syscall_c.cpp" 1
  85              	
  86:src/syscall_c.cpp ****     int povrVrednost;
 463              		ecall
 464              	# 0 "" 2
 465              		.loc 1 86 5 is_stmt 1
  87:src/syscall_c.cpp ****     asm volatile("mv %0, a0" : "=r"(povrVrednost));
 466              		.loc 1 87 5
 467              		.loc 1 87 51 is_stmt 0
 468              	# 87 "src/syscall_c.cpp" 1
  88              	    return povrVrednost;
 469              		mv a0, a0
 470              	# 0 "" 2
 471              	.LVL24:
 472              		.loc 1 88 5 is_stmt 1
  89:src/syscall_c.cpp **** }
 473              		.loc 1 89 1 is_stmt 0
 474              	#NO_APP
 475 01c0 1B050500 		sext.w	a0,a0
 476 01c4 03348100 		ld	s0,8(sp)
 477              		.cfi_restore 8
 478              		.cfi_def_cfa 2, 16
 479 01c8 13010101 		addi	sp,sp,16
 480              		.cfi_def_cfa_offset 0
 481 01cc 67800000 		jr	ra
 482              		.cfi_endproc
 483              	.LFE8:
 485              		.align	2
 486              		.globl	_Z9sem_closeP4_sem
 488              	_Z9sem_closeP4_sem:
 489              	.LFB9:
  90:src/syscall_c.cpp **** 
  91:src/syscall_c.cpp **** int sem_close(sem_t handle){
 490              		.loc 1 91 28 is_stmt 1
 491              		.cfi_startproc
 492              	.LVL25:
 493 01d0 130101FF 		addi	sp,sp,-16
GAS LISTING /tmp/cc7g7oiR.s 			page 11


 494              		.cfi_def_cfa_offset 16
 495 01d4 23348100 		sd	s0,8(sp)
 496              		.cfi_offset 8, -8
 497 01d8 13040101 		addi	s0,sp,16
 498              		.cfi_def_cfa 8, 0
  92:src/syscall_c.cpp ****     asm volatile("mv a1, %0" :: "r"(handle));
 499              		.loc 1 92 5
 500              		.loc 1 92 45 is_stmt 0
 501              	#APP
 502              	# 92 "src/syscall_c.cpp" 1
  93              	    asm volatile("li a0, %0" :: "i"(0x22));
 503              		mv a1, a0
 504              	# 0 "" 2
 505              		.loc 1 93 5 is_stmt 1
 506              		.loc 1 93 43 is_stmt 0
 507              	# 93 "src/syscall_c.cpp" 1
  94              	    asm volatile("ecall");
 508              		li a0, 34
 509              	# 0 "" 2
 510              		.loc 1 94 5 is_stmt 1
 511              		.loc 1 94 26 is_stmt 0
 512              	# 94 "src/syscall_c.cpp" 1
  95              	    int povrVrednost;
 513              		ecall
 514              	# 0 "" 2
 515              		.loc 1 95 5 is_stmt 1
  96:src/syscall_c.cpp ****     asm volatile("mv %0, a0" : "=r"(povrVrednost));
 516              		.loc 1 96 5
 517              		.loc 1 96 51 is_stmt 0
 518              	# 96 "src/syscall_c.cpp" 1
  97              	    return povrVrednost;
 519              		mv a0, a0
 520              	# 0 "" 2
 521              	.LVL26:
 522              		.loc 1 97 5 is_stmt 1
  98:src/syscall_c.cpp **** }
 523              		.loc 1 98 1 is_stmt 0
 524              	#NO_APP
 525 01ec 1B050500 		sext.w	a0,a0
 526 01f0 03348100 		ld	s0,8(sp)
 527              		.cfi_restore 8
 528              		.cfi_def_cfa 2, 16
 529 01f4 13010101 		addi	sp,sp,16
 530              		.cfi_def_cfa_offset 0
 531 01f8 67800000 		jr	ra
 532              		.cfi_endproc
 533              	.LFE9:
 535              		.align	2
 536              		.globl	_Z8sem_waitP4_sem
 538              	_Z8sem_waitP4_sem:
 539              	.LFB10:
  99:src/syscall_c.cpp **** 
 100:src/syscall_c.cpp **** int sem_wait(sem_t handle){
 540              		.loc 1 100 27 is_stmt 1
 541              		.cfi_startproc
 542              	.LVL27:
 543 01fc 130101FF 		addi	sp,sp,-16
GAS LISTING /tmp/cc7g7oiR.s 			page 12


 544              		.cfi_def_cfa_offset 16
 545 0200 23348100 		sd	s0,8(sp)
 546              		.cfi_offset 8, -8
 547 0204 13040101 		addi	s0,sp,16
 548              		.cfi_def_cfa 8, 0
 101:src/syscall_c.cpp ****     asm volatile("mv a1, %0" :: "r"(handle));
 549              		.loc 1 101 5
 550              		.loc 1 101 45 is_stmt 0
 551              	#APP
 552              	# 101 "src/syscall_c.cpp" 1
 102              	    asm volatile("li a0, %0" :: "i"(0x23));
 553              		mv a1, a0
 554              	# 0 "" 2
 555              		.loc 1 102 5 is_stmt 1
 556              		.loc 1 102 43 is_stmt 0
 557              	# 102 "src/syscall_c.cpp" 1
 103              	    asm volatile("ecall");
 558              		li a0, 35
 559              	# 0 "" 2
 560              		.loc 1 103 5 is_stmt 1
 561              		.loc 1 103 26 is_stmt 0
 562              	# 103 "src/syscall_c.cpp" 1
 104              	    int povrVrednost;
 563              		ecall
 564              	# 0 "" 2
 565              		.loc 1 104 5 is_stmt 1
 105:src/syscall_c.cpp ****     asm volatile("mv %0, a0" : "=r"(povrVrednost));
 566              		.loc 1 105 5
 567              		.loc 1 105 51 is_stmt 0
 568              	# 105 "src/syscall_c.cpp" 1
 106              	    return povrVrednost;
 569              		mv a0, a0
 570              	# 0 "" 2
 571              	.LVL28:
 572              		.loc 1 106 5 is_stmt 1
 107:src/syscall_c.cpp **** }
 573              		.loc 1 107 1 is_stmt 0
 574              	#NO_APP
 575 0218 1B050500 		sext.w	a0,a0
 576 021c 03348100 		ld	s0,8(sp)
 577              		.cfi_restore 8
 578              		.cfi_def_cfa 2, 16
 579 0220 13010101 		addi	sp,sp,16
 580              		.cfi_def_cfa_offset 0
 581 0224 67800000 		jr	ra
 582              		.cfi_endproc
 583              	.LFE10:
 585              		.align	2
 586              		.globl	_Z10sem_signalP4_sem
 588              	_Z10sem_signalP4_sem:
 589              	.LFB11:
 108:src/syscall_c.cpp **** 
 109:src/syscall_c.cpp **** int sem_signal(sem_t handle){
 590              		.loc 1 109 29 is_stmt 1
 591              		.cfi_startproc
 592              	.LVL29:
 593 0228 130101FF 		addi	sp,sp,-16
GAS LISTING /tmp/cc7g7oiR.s 			page 13


 594              		.cfi_def_cfa_offset 16
 595 022c 23348100 		sd	s0,8(sp)
 596              		.cfi_offset 8, -8
 597 0230 13040101 		addi	s0,sp,16
 598              		.cfi_def_cfa 8, 0
 110:src/syscall_c.cpp ****     asm volatile("mv a1, %0" :: "r"(handle));
 599              		.loc 1 110 5
 600              		.loc 1 110 45 is_stmt 0
 601              	#APP
 602              	# 110 "src/syscall_c.cpp" 1
 111              	    asm volatile("li a0, %0" :: "i"(0x24));
 603              		mv a1, a0
 604              	# 0 "" 2
 605              		.loc 1 111 5 is_stmt 1
 606              		.loc 1 111 43 is_stmt 0
 607              	# 111 "src/syscall_c.cpp" 1
 112              	    asm volatile("ecall");
 608              		li a0, 36
 609              	# 0 "" 2
 610              		.loc 1 112 5 is_stmt 1
 611              		.loc 1 112 26 is_stmt 0
 612              	# 112 "src/syscall_c.cpp" 1
 113              	    int povrVrednost;
 613              		ecall
 614              	# 0 "" 2
 615              		.loc 1 113 5 is_stmt 1
 114:src/syscall_c.cpp ****     asm volatile("mv %0, a0" : "=r"(povrVrednost));
 616              		.loc 1 114 5
 617              		.loc 1 114 51 is_stmt 0
 618              	# 114 "src/syscall_c.cpp" 1
 115              	    return povrVrednost;
 619              		mv a0, a0
 620              	# 0 "" 2
 621              	.LVL30:
 622              		.loc 1 115 5 is_stmt 1
 116:src/syscall_c.cpp **** }
 623              		.loc 1 116 1 is_stmt 0
 624              	#NO_APP
 625 0244 1B050500 		sext.w	a0,a0
 626 0248 03348100 		ld	s0,8(sp)
 627              		.cfi_restore 8
 628              		.cfi_def_cfa 2, 16
 629 024c 13010101 		addi	sp,sp,16
 630              		.cfi_def_cfa_offset 0
 631 0250 67800000 		jr	ra
 632              		.cfi_endproc
 633              	.LFE11:
 635              		.align	2
 636              		.globl	_Z13sem_timedwaitP4_semm
 638              	_Z13sem_timedwaitP4_semm:
 639              	.LFB12:
 117:src/syscall_c.cpp **** 
 118:src/syscall_c.cpp **** int sem_timedwait(sem_t handle, time_t time){
 640              		.loc 1 118 45 is_stmt 1
 641              		.cfi_startproc
 642              	.LVL31:
 643 0254 130101FF 		addi	sp,sp,-16
GAS LISTING /tmp/cc7g7oiR.s 			page 14


 644              		.cfi_def_cfa_offset 16
 645 0258 23348100 		sd	s0,8(sp)
 646              		.cfi_offset 8, -8
 647 025c 13040101 		addi	s0,sp,16
 648              		.cfi_def_cfa 8, 0
 119:src/syscall_c.cpp ****     asm volatile("mv a2, %0" :: "r"(time));
 649              		.loc 1 119 5
 650              		.loc 1 119 43 is_stmt 0
 651              	#APP
 652              	# 119 "src/syscall_c.cpp" 1
 120              	    asm volatile("mv a1, %0" :: "r"(handle));
 653              		mv a2, a1
 654              	# 0 "" 2
 655              		.loc 1 120 5 is_stmt 1
 656              		.loc 1 120 45 is_stmt 0
 657              	# 120 "src/syscall_c.cpp" 1
 121              	    asm volatile("li a0, %0" :: "i"(0x25));
 658              		mv a1, a0
 659              	# 0 "" 2
 660              		.loc 1 121 5 is_stmt 1
 661              		.loc 1 121 43 is_stmt 0
 662              	# 121 "src/syscall_c.cpp" 1
 122              	    int povrVrednost;
 663              		li a0, 37
 664              	# 0 "" 2
 665              		.loc 1 122 5 is_stmt 1
 123:src/syscall_c.cpp ****     asm volatile("mv %0, a0" : "=r"(povrVrednost));
 666              		.loc 1 123 5
 667              		.loc 1 123 51 is_stmt 0
 668              	# 123 "src/syscall_c.cpp" 1
 124              	    return povrVrednost; //u riscv samo vracam -1 kao povr vrednost kroz a0
 669              		mv a0, a0
 670              	# 0 "" 2
 671              	.LVL32:
 672              		.loc 1 124 5 is_stmt 1
 125:src/syscall_c.cpp **** }
 673              		.loc 1 125 1 is_stmt 0
 674              	#NO_APP
 675 0270 1B050500 		sext.w	a0,a0
 676 0274 03348100 		ld	s0,8(sp)
 677              		.cfi_restore 8
 678              		.cfi_def_cfa 2, 16
 679 0278 13010101 		addi	sp,sp,16
 680              		.cfi_def_cfa_offset 0
 681 027c 67800000 		jr	ra
 682              		.cfi_endproc
 683              	.LFE12:
 685              		.align	2
 686              		.globl	_Z11sem_trywaitP4_sem
 688              	_Z11sem_trywaitP4_sem:
 689              	.LFB13:
 126:src/syscall_c.cpp **** 
 127:src/syscall_c.cpp **** int sem_trywait(sem_t handle){
 690              		.loc 1 127 30 is_stmt 1
 691              		.cfi_startproc
 692              	.LVL33:
 693 0280 130101FF 		addi	sp,sp,-16
GAS LISTING /tmp/cc7g7oiR.s 			page 15


 694              		.cfi_def_cfa_offset 16
 695 0284 23348100 		sd	s0,8(sp)
 696              		.cfi_offset 8, -8
 697 0288 13040101 		addi	s0,sp,16
 698              		.cfi_def_cfa 8, 0
 128:src/syscall_c.cpp ****     asm volatile("mv a1, %0" :: "r"(handle));
 699              		.loc 1 128 5
 700              		.loc 1 128 45 is_stmt 0
 701              	#APP
 702              	# 128 "src/syscall_c.cpp" 1
 129              	    asm volatile("li a0, %0" :: "i"(0x26));
 703              		mv a1, a0
 704              	# 0 "" 2
 705              		.loc 1 129 5 is_stmt 1
 706              		.loc 1 129 43 is_stmt 0
 707              	# 129 "src/syscall_c.cpp" 1
 130              	    int povrVrednost;
 708              		li a0, 38
 709              	# 0 "" 2
 710              		.loc 1 130 5 is_stmt 1
 131:src/syscall_c.cpp ****     asm volatile("mv %0, a0" : "=r"(povrVrednost));
 711              		.loc 1 131 5
 712              		.loc 1 131 51 is_stmt 0
 713              	# 131 "src/syscall_c.cpp" 1
 132              	    return povrVrednost; //u riscv samo vracam -1 kao povr vrednost kroz a0
 714              		mv a0, a0
 715              	# 0 "" 2
 716              	.LVL34:
 717              		.loc 1 132 5 is_stmt 1
 133:src/syscall_c.cpp **** }...
 718              		.loc 1 133 1 is_stmt 0
 719              	#NO_APP
 720 0298 1B050500 		sext.w	a0,a0
 721 029c 03348100 		ld	s0,8(sp)
 722              		.cfi_restore 8
 723              		.cfi_def_cfa 2, 16
 724 02a0 13010101 		addi	sp,sp,16
 725              		.cfi_def_cfa_offset 0
 726 02a4 67800000 		jr	ra
 727              		.cfi_endproc
 728              	.LFE13:
 730              	.Letext0:
 731              		.file 2 "src/../h/../lib/hw.h"
 732              		.file 3 "src/../h/syscall_c.h"
GAS LISTING /tmp/cc7g7oiR.s 			page 16

