GAS LISTING /tmp/ccspGmmj.s 			page 1


   1              		.file	"syscall_cpp.cpp"
   2              		.option pic
   3              		.option norelax
   4              		.text
   5              	.Ltext0:
   6              		.section	.text._ZN6Thread3runEv,"axG",@progbits,_ZN6Thread3runEv,comdat
   7              		.align	2
   8              		.weak	_ZN6Thread3runEv
  10              	_ZN6Thread3runEv:
  11              	.LFB0:
  12              		.file 1 "src/../h/syscall_cpp.hpp"
   1:src/../h/syscall_cpp.hpp **** //
   2:src/../h/syscall_cpp.hpp **** // Created by os on 9/19/24.
   3:src/../h/syscall_cpp.hpp **** //
   4:src/../h/syscall_cpp.hpp **** 
   5:src/../h/syscall_cpp.hpp **** #ifndef OS_SYSCALL_CPP_HPP
   6:src/../h/syscall_cpp.hpp **** #define OS_SYSCALL_CPP_HPP
   7:src/../h/syscall_cpp.hpp **** 
   8:src/../h/syscall_cpp.hpp **** #include "syscall_c.h"
   9:src/../h/syscall_cpp.hpp **** 
  10:src/../h/syscall_cpp.hpp **** void* operator new (size_t);
  11:src/../h/syscall_cpp.hpp **** void operator delete (void*) noexcept;
  12:src/../h/syscall_cpp.hpp **** 
  13:src/../h/syscall_cpp.hpp **** class Thread {
  14:src/../h/syscall_cpp.hpp **** public:
  15:src/../h/syscall_cpp.hpp ****     Thread (void (*body)(void*), void* arg);
  16:src/../h/syscall_cpp.hpp ****     virtual ~Thread();
  17:src/../h/syscall_cpp.hpp **** 
  18:src/../h/syscall_cpp.hpp ****     int start();
  19:src/../h/syscall_cpp.hpp **** 
  20:src/../h/syscall_cpp.hpp ****     int sleep(time_t time);
  21:src/../h/syscall_cpp.hpp **** 
  22:src/../h/syscall_cpp.hpp ****     static void dispatch ();
  23:src/../h/syscall_cpp.hpp **** 
  24:src/../h/syscall_cpp.hpp **** protected:
  25:src/../h/syscall_cpp.hpp **** 
  26:src/../h/syscall_cpp.hpp ****     Thread();
  27:src/../h/syscall_cpp.hpp ****     virtual void run() {};
  13              		.loc 1 27 18
  14              		.cfi_startproc
  15              	.LVL0:
  16 0000 130101FF 		addi	sp,sp,-16
  17              		.cfi_def_cfa_offset 16
  18 0004 23348100 		sd	s0,8(sp)
  19              		.cfi_offset 8, -8
  20 0008 13040101 		addi	s0,sp,16
  21              		.cfi_def_cfa 8, 0
  22              		.loc 1 27 25 is_stmt 0
  23 000c 03348100 		ld	s0,8(sp)
  24              		.cfi_restore 8
  25              		.cfi_def_cfa 2, 16
  26 0010 13010101 		addi	sp,sp,16
  27              		.cfi_def_cfa_offset 0
  28 0014 67800000 		jr	ra
  29              		.cfi_endproc
  30              	.LFE0:
  32              		.section	.text._ZN6Thread10runWrapperEPv,"axG",@progbits,_ZN6Thread10runWrapperEPv,comdat
GAS LISTING /tmp/ccspGmmj.s 			page 2


  33              		.align	2
  34              		.weak	_ZN6Thread10runWrapperEPv
  36              	_ZN6Thread10runWrapperEPv:
  37              	.LFB1:
  28:src/../h/syscall_cpp.hpp **** 
  29:src/../h/syscall_cpp.hpp **** private:
  30:src/../h/syscall_cpp.hpp ****     static void runWrapper(void* thread_p) {
  38              		.loc 1 30 17 is_stmt 1
  39              		.cfi_startproc
  40              	.LVL1:
  41 0000 130101FF 		addi	sp,sp,-16
  42              		.cfi_def_cfa_offset 16
  43 0004 23341100 		sd	ra,8(sp)
  44 0008 23308100 		sd	s0,0(sp)
  45              		.cfi_offset 1, -8
  46              		.cfi_offset 8, -16
  47 000c 13040101 		addi	s0,sp,16
  48              		.cfi_def_cfa 8, 0
  31:src/../h/syscall_cpp.hpp ****         ((Thread*)thread_p)->run();
  49              		.loc 1 31 9
  50              		.loc 1 31 34 is_stmt 0
  51 0010 83370500 		ld	a5,0(a0)
  52 0014 83B70701 		ld	a5,16(a5)
  53              		.loc 1 31 33
  54 0018 E7800700 		jalr	a5
  55              	.LVL2:
  32:src/../h/syscall_cpp.hpp ****     }
  56              		.loc 1 32 5
  57 001c 83308100 		ld	ra,8(sp)
  58              		.cfi_restore 1
  59 0020 03340100 		ld	s0,0(sp)
  60              		.cfi_restore 8
  61              		.cfi_def_cfa 2, 16
  62 0024 13010101 		addi	sp,sp,16
  63              		.cfi_def_cfa_offset 0
  64 0028 67800000 		jr	ra
  65              		.cfi_endproc
  66              	.LFE1:
  68              		.text
  69              		.align	2
  70              		.globl	_ZN6ThreadD2Ev
  72              	_ZN6ThreadD2Ev:
  73              	.LFB10:
  74              		.file 2 "src/syscall_cpp.cpp"
   1:src/syscall_cpp.cpp **** //
   2:src/syscall_cpp.cpp **** // Created by os on 9/19/24.
   3:src/syscall_cpp.cpp **** //
   4:src/syscall_cpp.cpp **** 
   5:src/syscall_cpp.cpp **** #include "../h/syscall_cpp.hpp"
   6:src/syscall_cpp.cpp **** 
   7:src/syscall_cpp.cpp **** 
   8:src/syscall_cpp.cpp **** void *operator new(size_t n)
   9:src/syscall_cpp.cpp **** {
  10:src/syscall_cpp.cpp ****     return mem_alloc(n);
  11:src/syscall_cpp.cpp **** }
  12:src/syscall_cpp.cpp **** 
  13:src/syscall_cpp.cpp **** void *operator new[](size_t n)
GAS LISTING /tmp/ccspGmmj.s 			page 3


  14:src/syscall_cpp.cpp **** {
  15:src/syscall_cpp.cpp ****     return mem_alloc(n);
  16:src/syscall_cpp.cpp **** }
  17:src/syscall_cpp.cpp **** 
  18:src/syscall_cpp.cpp **** void operator delete(void *p) noexcept
  19:src/syscall_cpp.cpp **** {
  20:src/syscall_cpp.cpp ****     mem_free(p);
  21:src/syscall_cpp.cpp **** }
  22:src/syscall_cpp.cpp **** 
  23:src/syscall_cpp.cpp **** void operator delete[](void *p) noexcept
  24:src/syscall_cpp.cpp **** {
  25:src/syscall_cpp.cpp ****     mem_free(p);
  26:src/syscall_cpp.cpp **** }
  27:src/syscall_cpp.cpp **** 
  28:src/syscall_cpp.cpp **** Thread::Thread(void (*body)(void *), void *arg) : body(body), arg(arg){
  29:src/syscall_cpp.cpp **** }
  30:src/syscall_cpp.cpp **** 
  31:src/syscall_cpp.cpp **** 
  32:src/syscall_cpp.cpp **** Thread::~Thread(){
  75              		.loc 2 32 1 is_stmt 1
  76              		.cfi_startproc
  77              	.LVL3:
  78 0000 130101FF 		addi	sp,sp,-16
  79              		.cfi_def_cfa_offset 16
  80 0004 23348100 		sd	s0,8(sp)
  81              		.cfi_offset 8, -8
  82 0008 13040101 		addi	s0,sp,16
  83              		.cfi_def_cfa 8, 0
  33:src/syscall_cpp.cpp **** 
  34:src/syscall_cpp.cpp **** }
  84              		.loc 2 34 1 is_stmt 0
  85 000c 03348100 		ld	s0,8(sp)
  86              		.cfi_restore 8
  87              		.cfi_def_cfa 2, 16
  88 0010 13010101 		addi	sp,sp,16
  89              		.cfi_def_cfa_offset 0
  90 0014 67800000 		jr	ra
  91              		.cfi_endproc
  92              	.LFE10:
  94              		.globl	_ZN6ThreadD1Ev
  95              		.set	_ZN6ThreadD1Ev,_ZN6ThreadD2Ev
  96              		.align	2
  97              		.globl	_ZN9SemaphoreD2Ev
  99              	_ZN9SemaphoreD2Ev:
 100              	.LFB23:
  35:src/syscall_cpp.cpp **** 
  36:src/syscall_cpp.cpp **** int Thread::start() {
  37:src/syscall_cpp.cpp ****     return thread_create(&myHandle, body, arg);
  38:src/syscall_cpp.cpp **** }
  39:src/syscall_cpp.cpp **** 
  40:src/syscall_cpp.cpp **** void Thread::dispatch() {
  41:src/syscall_cpp.cpp ****     thread_dispatch();
  42:src/syscall_cpp.cpp **** }
  43:src/syscall_cpp.cpp **** 
  44:src/syscall_cpp.cpp **** Thread::Thread() : body(&runWrapper), arg(this){
  45:src/syscall_cpp.cpp **** 
  46:src/syscall_cpp.cpp **** }
GAS LISTING /tmp/ccspGmmj.s 			page 4


  47:src/syscall_cpp.cpp **** 
  48:src/syscall_cpp.cpp **** int Thread::sleep(time_t time) {
  49:src/syscall_cpp.cpp ****     return time_sleep(time);
  50:src/syscall_cpp.cpp **** }
  51:src/syscall_cpp.cpp **** 
  52:src/syscall_cpp.cpp **** Semaphore::Semaphore(unsigned int init) {
  53:src/syscall_cpp.cpp ****     sem_open(&myHandle, init);
  54:src/syscall_cpp.cpp **** }
  55:src/syscall_cpp.cpp **** 
  56:src/syscall_cpp.cpp **** Semaphore::~Semaphore() {
 101              		.loc 2 56 1 is_stmt 1
 102              		.cfi_startproc
 103              		.cfi_personality 0x9b,DW.ref.__gxx_personality_v0
 104              		.cfi_lsda 0x1b,.LLSDA23
 105              	.LVL4:
 106 0018 130101FF 		addi	sp,sp,-16
 107              		.cfi_def_cfa_offset 16
 108 001c 23341100 		sd	ra,8(sp)
 109 0020 23308100 		sd	s0,0(sp)
 110              		.cfi_offset 1, -8
 111              		.cfi_offset 8, -16
 112 0024 13040101 		addi	s0,sp,16
 113              		.cfi_def_cfa 8, 0
 114              	.LBB2:
 115              		.loc 2 56 23 is_stmt 0
 116 0028 97070000 		lla	a5,_ZTV9Semaphore+16
 116      93870700 
 117 0030 2330F500 		sd	a5,0(a0)
  57:src/syscall_cpp.cpp ****     sem_close(myHandle);
 118              		.loc 2 57 5 is_stmt 1
 119              		.loc 2 57 14 is_stmt 0
 120 0034 03358500 		ld	a0,8(a0)
 121              	.LVL5:
 122 0038 97000000 		call	_Z9sem_closeP4_sem@plt
 122      E7800000 
 123              	.LVL6:
 124              	.LBE2:
  58:src/syscall_cpp.cpp **** }
 125              		.loc 2 58 1
 126 0040 83308100 		ld	ra,8(sp)
 127              		.cfi_restore 1
 128 0044 03340100 		ld	s0,0(sp)
 129              		.cfi_restore 8
 130              		.cfi_def_cfa 2, 16
 131 0048 13010101 		addi	sp,sp,16
 132              		.cfi_def_cfa_offset 0
 133 004c 67800000 		jr	ra
 134              		.cfi_endproc
 135              	.LFE23:
 136              		.globl	__gxx_personality_v0
 137              		.section	.gcc_except_table,"a",@progbits
 138              	.LLSDA23:
 139 0000 FF       		.byte	0xff
 140 0001 FF       		.byte	0xff
 141 0002 03       		.byte	0x3
 142 0003 00       		.byte	0
 143              		.text
GAS LISTING /tmp/ccspGmmj.s 			page 5


 145              		.globl	_ZN9SemaphoreD1Ev
 146              		.set	_ZN9SemaphoreD1Ev,_ZN9SemaphoreD2Ev
 147              		.align	2
 148              		.globl	_Znwm
 150              	_Znwm:
 151              	.LFB2:
   9:src/syscall_cpp.cpp ****     return mem_alloc(n);
 152              		.loc 2 9 1 is_stmt 1
 153              		.cfi_startproc
 154              	.LVL7:
 155 0050 130101FF 		addi	sp,sp,-16
 156              		.cfi_def_cfa_offset 16
 157 0054 23341100 		sd	ra,8(sp)
 158 0058 23308100 		sd	s0,0(sp)
 159              		.cfi_offset 1, -8
 160              		.cfi_offset 8, -16
 161 005c 13040101 		addi	s0,sp,16
 162              		.cfi_def_cfa 8, 0
  10:src/syscall_cpp.cpp **** }
 163              		.loc 2 10 5
  10:src/syscall_cpp.cpp **** }
 164              		.loc 2 10 21 is_stmt 0
 165 0060 97000000 		call	_Z9mem_allocm@plt
 165      E7800000 
 166              	.LVL8:
  11:src/syscall_cpp.cpp **** 
 167              		.loc 2 11 1
 168 0068 83308100 		ld	ra,8(sp)
 169              		.cfi_restore 1
 170 006c 03340100 		ld	s0,0(sp)
 171              		.cfi_restore 8
 172              		.cfi_def_cfa 2, 16
 173 0070 13010101 		addi	sp,sp,16
 174              		.cfi_def_cfa_offset 0
 175 0074 67800000 		jr	ra
 176              		.cfi_endproc
 177              	.LFE2:
 179              		.align	2
 180              		.globl	_Znam
 182              	_Znam:
 183              	.LFB3:
  14:src/syscall_cpp.cpp ****     return mem_alloc(n);
 184              		.loc 2 14 1 is_stmt 1
 185              		.cfi_startproc
 186              	.LVL9:
 187 0078 130101FF 		addi	sp,sp,-16
 188              		.cfi_def_cfa_offset 16
 189 007c 23341100 		sd	ra,8(sp)
 190 0080 23308100 		sd	s0,0(sp)
 191              		.cfi_offset 1, -8
 192              		.cfi_offset 8, -16
 193 0084 13040101 		addi	s0,sp,16
 194              		.cfi_def_cfa 8, 0
  15:src/syscall_cpp.cpp **** }
 195              		.loc 2 15 5
  15:src/syscall_cpp.cpp **** }
 196              		.loc 2 15 21 is_stmt 0
GAS LISTING /tmp/ccspGmmj.s 			page 6


 197 0088 97000000 		call	_Z9mem_allocm@plt
 197      E7800000 
 198              	.LVL10:
  16:src/syscall_cpp.cpp **** 
 199              		.loc 2 16 1
 200 0090 83308100 		ld	ra,8(sp)
 201              		.cfi_restore 1
 202 0094 03340100 		ld	s0,0(sp)
 203              		.cfi_restore 8
 204              		.cfi_def_cfa 2, 16
 205 0098 13010101 		addi	sp,sp,16
 206              		.cfi_def_cfa_offset 0
 207 009c 67800000 		jr	ra
 208              		.cfi_endproc
 209              	.LFE3:
 211              		.align	2
 212              		.globl	_ZdlPv
 214              	_ZdlPv:
 215              	.LFB4:
  19:src/syscall_cpp.cpp ****     mem_free(p);
 216              		.loc 2 19 1 is_stmt 1
 217              		.cfi_startproc
 218              		.cfi_personality 0x9b,DW.ref.__gxx_personality_v0
 219              		.cfi_lsda 0x1b,.LLSDA4
 220              	.LVL11:
 221 00a0 130101FF 		addi	sp,sp,-16
 222              		.cfi_def_cfa_offset 16
 223 00a4 23341100 		sd	ra,8(sp)
 224 00a8 23308100 		sd	s0,0(sp)
 225              		.cfi_offset 1, -8
 226              		.cfi_offset 8, -16
 227 00ac 13040101 		addi	s0,sp,16
 228              		.cfi_def_cfa 8, 0
  20:src/syscall_cpp.cpp **** }
 229              		.loc 2 20 5
  20:src/syscall_cpp.cpp **** }
 230              		.loc 2 20 13 is_stmt 0
 231 00b0 97000000 		call	_Z8mem_freePv@plt
 231      E7800000 
 232              	.LVL12:
  21:src/syscall_cpp.cpp **** 
 233              		.loc 2 21 1
 234 00b8 83308100 		ld	ra,8(sp)
 235              		.cfi_restore 1
 236 00bc 03340100 		ld	s0,0(sp)
 237              		.cfi_restore 8
 238              		.cfi_def_cfa 2, 16
 239 00c0 13010101 		addi	sp,sp,16
 240              		.cfi_def_cfa_offset 0
 241 00c4 67800000 		jr	ra
 242              		.cfi_endproc
 243              	.LFE4:
 244              		.section	.gcc_except_table
 245              	.LLSDA4:
 246 0004 FF       		.byte	0xff
 247 0005 FF       		.byte	0xff
 248 0006 03       		.byte	0x3
GAS LISTING /tmp/ccspGmmj.s 			page 7


 249 0007 00       		.byte	0
 250              		.text
 252              		.align	2
 253              		.globl	_ZN6ThreadD0Ev
 255              	_ZN6ThreadD0Ev:
 256              	.LFB12:
  32:src/syscall_cpp.cpp **** 
 257              		.loc 2 32 1 is_stmt 1
 258              		.cfi_startproc
 259              	.LVL13:
 260 00c8 130101FF 		addi	sp,sp,-16
 261              		.cfi_def_cfa_offset 16
 262 00cc 23341100 		sd	ra,8(sp)
 263 00d0 23308100 		sd	s0,0(sp)
 264              		.cfi_offset 1, -8
 265              		.cfi_offset 8, -16
 266 00d4 13040101 		addi	s0,sp,16
 267              		.cfi_def_cfa 8, 0
  34:src/syscall_cpp.cpp **** 
 268              		.loc 2 34 1 is_stmt 0
 269 00d8 97000000 		call	_ZdlPv
 269      E7800000 
 270              	.LVL14:
 271 00e0 83308100 		ld	ra,8(sp)
 272              		.cfi_restore 1
 273 00e4 03340100 		ld	s0,0(sp)
 274              		.cfi_restore 8
 275              		.cfi_def_cfa 2, 16
 276 00e8 13010101 		addi	sp,sp,16
 277              		.cfi_def_cfa_offset 0
 278 00ec 67800000 		jr	ra
 279              		.cfi_endproc
 280              	.LFE12:
 282              		.align	2
 283              		.globl	_ZN9SemaphoreD0Ev
 285              	_ZN9SemaphoreD0Ev:
 286              	.LFB25:
  56:src/syscall_cpp.cpp ****     sem_close(myHandle);
 287              		.loc 2 56 1 is_stmt 1
 288              		.cfi_startproc
 289              	.LVL15:
 290 00f0 130101FE 		addi	sp,sp,-32
 291              		.cfi_def_cfa_offset 32
 292 00f4 233C1100 		sd	ra,24(sp)
 293 00f8 23388100 		sd	s0,16(sp)
 294 00fc 23349100 		sd	s1,8(sp)
 295              		.cfi_offset 1, -8
 296              		.cfi_offset 8, -16
 297              		.cfi_offset 9, -24
 298 0100 13040102 		addi	s0,sp,32
 299              		.cfi_def_cfa 8, 0
 300 0104 93040500 		mv	s1,a0
 301              		.loc 2 58 1 is_stmt 0
 302 0108 97000000 		call	_ZN9SemaphoreD1Ev
 302      E7800000 
 303              	.LVL16:
 304 0110 13850400 		mv	a0,s1
GAS LISTING /tmp/ccspGmmj.s 			page 8


 305 0114 97000000 		call	_ZdlPv
 305      E7800000 
 306              	.LVL17:
 307 011c 83308101 		ld	ra,24(sp)
 308              		.cfi_restore 1
 309 0120 03340101 		ld	s0,16(sp)
 310              		.cfi_restore 8
 311              		.cfi_def_cfa 2, 32
 312 0124 83348100 		ld	s1,8(sp)
 313              		.cfi_restore 9
 314              	.LVL18:
 315 0128 13010102 		addi	sp,sp,32
 316              		.cfi_def_cfa_offset 0
 317 012c 67800000 		jr	ra
 318              		.cfi_endproc
 319              	.LFE25:
 321              		.align	2
 322              		.globl	_ZdaPv
 324              	_ZdaPv:
 325              	.LFB5:
  24:src/syscall_cpp.cpp ****     mem_free(p);
 326              		.loc 2 24 1 is_stmt 1
 327              		.cfi_startproc
 328              		.cfi_personality 0x9b,DW.ref.__gxx_personality_v0
 329              		.cfi_lsda 0x1b,.LLSDA5
 330              	.LVL19:
 331 0130 130101FF 		addi	sp,sp,-16
 332              		.cfi_def_cfa_offset 16
 333 0134 23341100 		sd	ra,8(sp)
 334 0138 23308100 		sd	s0,0(sp)
 335              		.cfi_offset 1, -8
 336              		.cfi_offset 8, -16
 337 013c 13040101 		addi	s0,sp,16
 338              		.cfi_def_cfa 8, 0
  25:src/syscall_cpp.cpp **** }
 339              		.loc 2 25 5
  25:src/syscall_cpp.cpp **** }
 340              		.loc 2 25 13 is_stmt 0
 341 0140 97000000 		call	_Z8mem_freePv@plt
 341      E7800000 
 342              	.LVL20:
  26:src/syscall_cpp.cpp **** 
 343              		.loc 2 26 1
 344 0148 83308100 		ld	ra,8(sp)
 345              		.cfi_restore 1
 346 014c 03340100 		ld	s0,0(sp)
 347              		.cfi_restore 8
 348              		.cfi_def_cfa 2, 16
 349 0150 13010101 		addi	sp,sp,16
 350              		.cfi_def_cfa_offset 0
 351 0154 67800000 		jr	ra
 352              		.cfi_endproc
 353              	.LFE5:
 354              		.section	.gcc_except_table
 355              	.LLSDA5:
 356 0008 FF       		.byte	0xff
 357 0009 FF       		.byte	0xff
GAS LISTING /tmp/ccspGmmj.s 			page 9


 358 000a 03       		.byte	0x3
 359 000b 00       		.byte	0
 360              		.text
 362              		.align	2
 363              		.globl	_ZN6ThreadC2EPFvPvES0_
 365              	_ZN6ThreadC2EPFvPvES0_:
 366              	.LFB7:
  28:src/syscall_cpp.cpp **** }
 367              		.loc 2 28 1 is_stmt 1
 368              		.cfi_startproc
 369              	.LVL21:
 370 0158 130101FF 		addi	sp,sp,-16
 371              		.cfi_def_cfa_offset 16
 372 015c 23348100 		sd	s0,8(sp)
 373              		.cfi_offset 8, -8
 374 0160 13040101 		addi	s0,sp,16
 375              		.cfi_def_cfa 8, 0
 376              	.LBB3:
  28:src/syscall_cpp.cpp **** }
 377              		.loc 2 28 70 is_stmt 0
 378 0164 97070000 		lla	a5,_ZTV6Thread+16
 378      93870700 
 379 016c 2330F500 		sd	a5,0(a0)
 380 0170 2338B500 		sd	a1,16(a0)
 381 0174 233CC500 		sd	a2,24(a0)
 382              	.LBE3:
  29:src/syscall_cpp.cpp **** 
 383              		.loc 2 29 1
 384 0178 03348100 		ld	s0,8(sp)
 385              		.cfi_restore 8
 386              		.cfi_def_cfa 2, 16
 387 017c 13010101 		addi	sp,sp,16
 388              		.cfi_def_cfa_offset 0
 389 0180 67800000 		jr	ra
 390              		.cfi_endproc
 391              	.LFE7:
 393              		.globl	_ZN6ThreadC1EPFvPvES0_
 394              		.set	_ZN6ThreadC1EPFvPvES0_,_ZN6ThreadC2EPFvPvES0_
 395              		.align	2
 396              		.globl	_ZN6Thread5startEv
 398              	_ZN6Thread5startEv:
 399              	.LFB13:
  36:src/syscall_cpp.cpp ****     return thread_create(&myHandle, body, arg);
 400              		.loc 2 36 21 is_stmt 1
 401              		.cfi_startproc
 402              	.LVL22:
 403 0184 130101FF 		addi	sp,sp,-16
 404              		.cfi_def_cfa_offset 16
 405 0188 23341100 		sd	ra,8(sp)
 406 018c 23308100 		sd	s0,0(sp)
 407              		.cfi_offset 1, -8
 408              		.cfi_offset 8, -16
 409 0190 13040101 		addi	s0,sp,16
 410              		.cfi_def_cfa 8, 0
  37:src/syscall_cpp.cpp **** }
 411              		.loc 2 37 5
  37:src/syscall_cpp.cpp **** }
GAS LISTING /tmp/ccspGmmj.s 			page 10


 412              		.loc 2 37 25 is_stmt 0
 413 0194 03368501 		ld	a2,24(a0)
 414 0198 83350501 		ld	a1,16(a0)
 415 019c 13058500 		addi	a0,a0,8
 416              	.LVL23:
 417 01a0 97000000 		call	_Z13thread_createPP3TCBPFvPvES2_@plt
 417      E7800000 
 418              	.LVL24:
  38:src/syscall_cpp.cpp **** 
 419              		.loc 2 38 1
 420 01a8 83308100 		ld	ra,8(sp)
 421              		.cfi_restore 1
 422 01ac 03340100 		ld	s0,0(sp)
 423              		.cfi_restore 8
 424              		.cfi_def_cfa 2, 16
 425 01b0 13010101 		addi	sp,sp,16
 426              		.cfi_def_cfa_offset 0
 427 01b4 67800000 		jr	ra
 428              		.cfi_endproc
 429              	.LFE13:
 431              		.align	2
 432              		.globl	_ZN6Thread8dispatchEv
 434              	_ZN6Thread8dispatchEv:
 435              	.LFB14:
  40:src/syscall_cpp.cpp ****     thread_dispatch();
 436              		.loc 2 40 25 is_stmt 1
 437              		.cfi_startproc
 438 01b8 130101FF 		addi	sp,sp,-16
 439              		.cfi_def_cfa_offset 16
 440 01bc 23341100 		sd	ra,8(sp)
 441 01c0 23308100 		sd	s0,0(sp)
 442              		.cfi_offset 1, -8
 443              		.cfi_offset 8, -16
 444 01c4 13040101 		addi	s0,sp,16
 445              		.cfi_def_cfa 8, 0
  41:src/syscall_cpp.cpp **** }
 446              		.loc 2 41 5
  41:src/syscall_cpp.cpp **** }
 447              		.loc 2 41 20 is_stmt 0
 448 01c8 97000000 		call	_Z15thread_dispatchv@plt
 448      E7800000 
 449              	.LVL25:
  42:src/syscall_cpp.cpp **** 
 450              		.loc 2 42 1
 451 01d0 83308100 		ld	ra,8(sp)
 452              		.cfi_restore 1
 453 01d4 03340100 		ld	s0,0(sp)
 454              		.cfi_restore 8
 455              		.cfi_def_cfa 2, 16
 456 01d8 13010101 		addi	sp,sp,16
 457              		.cfi_def_cfa_offset 0
 458 01dc 67800000 		jr	ra
 459              		.cfi_endproc
 460              	.LFE14:
 462              		.align	2
 463              		.globl	_ZN6ThreadC2Ev
 465              	_ZN6ThreadC2Ev:
GAS LISTING /tmp/ccspGmmj.s 			page 11


 466              	.LFB16:
  44:src/syscall_cpp.cpp **** 
 467              		.loc 2 44 1 is_stmt 1
 468              		.cfi_startproc
 469              	.LVL26:
 470 01e0 130101FF 		addi	sp,sp,-16
 471              		.cfi_def_cfa_offset 16
 472 01e4 23348100 		sd	s0,8(sp)
 473              		.cfi_offset 8, -8
 474 01e8 13040101 		addi	s0,sp,16
 475              		.cfi_def_cfa 8, 0
 476              	.LBB4:
  44:src/syscall_cpp.cpp **** 
 477              		.loc 2 44 47 is_stmt 0
 478 01ec 97070000 		lla	a5,_ZTV6Thread+16
 478      93870700 
 479 01f4 2330F500 		sd	a5,0(a0)
 480 01f8 97070000 		lla	a5,_ZN6Thread10runWrapperEPv
 480      93870700 
 481 0200 2338F500 		sd	a5,16(a0)
 482 0204 233CA500 		sd	a0,24(a0)
 483              	.LBE4:
  46:src/syscall_cpp.cpp **** 
 484              		.loc 2 46 1
 485 0208 03348100 		ld	s0,8(sp)
 486              		.cfi_restore 8
 487              		.cfi_def_cfa 2, 16
 488 020c 13010101 		addi	sp,sp,16
 489              		.cfi_def_cfa_offset 0
 490 0210 67800000 		jr	ra
 491              		.cfi_endproc
 492              	.LFE16:
 494              		.globl	_ZN6ThreadC1Ev
 495              		.set	_ZN6ThreadC1Ev,_ZN6ThreadC2Ev
 496              		.align	2
 497              		.globl	_ZN6Thread5sleepEm
 499              	_ZN6Thread5sleepEm:
 500              	.LFB18:
  48:src/syscall_cpp.cpp ****     return time_sleep(time);
 501              		.loc 2 48 32 is_stmt 1
 502              		.cfi_startproc
 503              	.LVL27:
 504 0214 130101FF 		addi	sp,sp,-16
 505              		.cfi_def_cfa_offset 16
 506 0218 23341100 		sd	ra,8(sp)
 507 021c 23308100 		sd	s0,0(sp)
 508              		.cfi_offset 1, -8
 509              		.cfi_offset 8, -16
 510 0220 13040101 		addi	s0,sp,16
 511              		.cfi_def_cfa 8, 0
  49:src/syscall_cpp.cpp **** }
 512              		.loc 2 49 5
  49:src/syscall_cpp.cpp **** }
 513              		.loc 2 49 22 is_stmt 0
 514 0224 13850500 		mv	a0,a1
 515              	.LVL28:
 516 0228 97000000 		call	_Z10time_sleepm@plt
GAS LISTING /tmp/ccspGmmj.s 			page 12


 516      E7800000 
 517              	.LVL29:
  50:src/syscall_cpp.cpp **** 
 518              		.loc 2 50 1
 519 0230 83308100 		ld	ra,8(sp)
 520              		.cfi_restore 1
 521 0234 03340100 		ld	s0,0(sp)
 522              		.cfi_restore 8
 523              		.cfi_def_cfa 2, 16
 524 0238 13010101 		addi	sp,sp,16
 525              		.cfi_def_cfa_offset 0
 526 023c 67800000 		jr	ra
 527              		.cfi_endproc
 528              	.LFE18:
 530              		.align	2
 531              		.globl	_ZN9SemaphoreC2Ej
 533              	_ZN9SemaphoreC2Ej:
 534              	.LFB20:
  52:src/syscall_cpp.cpp ****     sem_open(&myHandle, init);
 535              		.loc 2 52 1 is_stmt 1
 536              		.cfi_startproc
 537              	.LVL30:
 538 0240 130101FF 		addi	sp,sp,-16
 539              		.cfi_def_cfa_offset 16
 540 0244 23341100 		sd	ra,8(sp)
 541 0248 23308100 		sd	s0,0(sp)
 542              		.cfi_offset 1, -8
 543              		.cfi_offset 8, -16
 544 024c 13040101 		addi	s0,sp,16
 545              		.cfi_def_cfa 8, 0
 546              	.LBB5:
  52:src/syscall_cpp.cpp ****     sem_open(&myHandle, init);
 547              		.loc 2 52 39 is_stmt 0
 548 0250 97070000 		lla	a5,_ZTV9Semaphore+16
 548      93870700 
 549 0258 2330F500 		sd	a5,0(a0)
  53:src/syscall_cpp.cpp **** }
 550              		.loc 2 53 5 is_stmt 1
  53:src/syscall_cpp.cpp **** }
 551              		.loc 2 53 13 is_stmt 0
 552 025c 13058500 		addi	a0,a0,8
 553              	.LVL31:
 554 0260 97000000 		call	_Z8sem_openPP4_semj@plt
 554      E7800000 
 555              	.LVL32:
 556              	.LBE5:
  54:src/syscall_cpp.cpp **** 
 557              		.loc 2 54 1
 558 0268 83308100 		ld	ra,8(sp)
 559              		.cfi_restore 1
 560 026c 03340100 		ld	s0,0(sp)
 561              		.cfi_restore 8
 562              		.cfi_def_cfa 2, 16
 563 0270 13010101 		addi	sp,sp,16
 564              		.cfi_def_cfa_offset 0
 565 0274 67800000 		jr	ra
 566              		.cfi_endproc
GAS LISTING /tmp/ccspGmmj.s 			page 13


 567              	.LFE20:
 569              		.globl	_ZN9SemaphoreC1Ej
 570              		.set	_ZN9SemaphoreC1Ej,_ZN9SemaphoreC2Ej
 571              		.align	2
 572              		.globl	_ZN9Semaphore4waitEv
 574              	_ZN9Semaphore4waitEv:
 575              	.LFB26:
  59:src/syscall_cpp.cpp **** 
  60:src/syscall_cpp.cpp **** int Semaphore::wait() {
 576              		.loc 2 60 23 is_stmt 1
 577              		.cfi_startproc
 578              	.LVL33:
 579 0278 130101FF 		addi	sp,sp,-16
 580              		.cfi_def_cfa_offset 16
 581 027c 23341100 		sd	ra,8(sp)
 582 0280 23308100 		sd	s0,0(sp)
 583              		.cfi_offset 1, -8
 584              		.cfi_offset 8, -16
 585 0284 13040101 		addi	s0,sp,16
 586              		.cfi_def_cfa 8, 0
  61:src/syscall_cpp.cpp ****     return sem_wait(myHandle);
 587              		.loc 2 61 5
 588              		.loc 2 61 20 is_stmt 0
 589 0288 03358500 		ld	a0,8(a0)
 590              	.LVL34:
 591 028c 97000000 		call	_Z8sem_waitP4_sem@plt
 591      E7800000 
 592              	.LVL35:
  62:src/syscall_cpp.cpp **** }
 593              		.loc 2 62 1
 594 0294 83308100 		ld	ra,8(sp)
 595              		.cfi_restore 1
 596 0298 03340100 		ld	s0,0(sp)
 597              		.cfi_restore 8
 598              		.cfi_def_cfa 2, 16
 599 029c 13010101 		addi	sp,sp,16
 600              		.cfi_def_cfa_offset 0
 601 02a0 67800000 		jr	ra
 602              		.cfi_endproc
 603              	.LFE26:
 605              		.align	2
 606              		.globl	_ZN9Semaphore6signalEv
 608              	_ZN9Semaphore6signalEv:
 609              	.LFB27:
  63:src/syscall_cpp.cpp **** 
  64:src/syscall_cpp.cpp **** int Semaphore::signal() {
 610              		.loc 2 64 25 is_stmt 1
 611              		.cfi_startproc
 612              	.LVL36:
 613 02a4 130101FF 		addi	sp,sp,-16
 614              		.cfi_def_cfa_offset 16
 615 02a8 23341100 		sd	ra,8(sp)
 616 02ac 23308100 		sd	s0,0(sp)
 617              		.cfi_offset 1, -8
 618              		.cfi_offset 8, -16
 619 02b0 13040101 		addi	s0,sp,16
 620              		.cfi_def_cfa 8, 0
GAS LISTING /tmp/ccspGmmj.s 			page 14


  65:src/syscall_cpp.cpp ****     return sem_signal(myHandle);
 621              		.loc 2 65 5
 622              		.loc 2 65 22 is_stmt 0
 623 02b4 03358500 		ld	a0,8(a0)
 624              	.LVL37:
 625 02b8 97000000 		call	_Z10sem_signalP4_sem@plt
 625      E7800000 
 626              	.LVL38:
  66:src/syscall_cpp.cpp **** }
 627              		.loc 2 66 1
 628 02c0 83308100 		ld	ra,8(sp)
 629              		.cfi_restore 1
 630 02c4 03340100 		ld	s0,0(sp)
 631              		.cfi_restore 8
 632              		.cfi_def_cfa 2, 16
 633 02c8 13010101 		addi	sp,sp,16
 634              		.cfi_def_cfa_offset 0
 635 02cc 67800000 		jr	ra
 636              		.cfi_endproc
 637              	.LFE27:
 639              		.align	2
 640              		.globl	_ZN9Semaphore7tryWaitEv
 642              	_ZN9Semaphore7tryWaitEv:
 643              	.LFB28:
  67:src/syscall_cpp.cpp **** 
  68:src/syscall_cpp.cpp **** int Semaphore::tryWait() {
 644              		.loc 2 68 26 is_stmt 1
 645              		.cfi_startproc
 646              	.LVL39:
 647 02d0 130101FF 		addi	sp,sp,-16
 648              		.cfi_def_cfa_offset 16
 649 02d4 23341100 		sd	ra,8(sp)
 650 02d8 23308100 		sd	s0,0(sp)
 651              		.cfi_offset 1, -8
 652              		.cfi_offset 8, -16
 653 02dc 13040101 		addi	s0,sp,16
 654              		.cfi_def_cfa 8, 0
  69:src/syscall_cpp.cpp ****     return sem_trywait(myHandle);
 655              		.loc 2 69 5
 656              		.loc 2 69 23 is_stmt 0
 657 02e0 03358500 		ld	a0,8(a0)
 658              	.LVL40:
 659 02e4 97000000 		call	_Z11sem_trywaitP4_sem@plt
 659      E7800000 
 660              	.LVL41:
  70:src/syscall_cpp.cpp **** }
 661              		.loc 2 70 1
 662 02ec 83308100 		ld	ra,8(sp)
 663              		.cfi_restore 1
 664 02f0 03340100 		ld	s0,0(sp)
 665              		.cfi_restore 8
 666              		.cfi_def_cfa 2, 16
 667 02f4 13010101 		addi	sp,sp,16
 668              		.cfi_def_cfa_offset 0
 669 02f8 67800000 		jr	ra
 670              		.cfi_endproc
 671              	.LFE28:
GAS LISTING /tmp/ccspGmmj.s 			page 15


 673              		.align	2
 674              		.globl	_ZN7Console4getcEv
 676              	_ZN7Console4getcEv:
 677              	.LFB29:
  71:src/syscall_cpp.cpp **** 
  72:src/syscall_cpp.cpp **** 
  73:src/syscall_cpp.cpp **** char Console::getc() {
 678              		.loc 2 73 22 is_stmt 1
 679              		.cfi_startproc
 680 02fc 130101FF 		addi	sp,sp,-16
 681              		.cfi_def_cfa_offset 16
 682 0300 23341100 		sd	ra,8(sp)
 683 0304 23308100 		sd	s0,0(sp)
 684              		.cfi_offset 1, -8
 685              		.cfi_offset 8, -16
 686 0308 13040101 		addi	s0,sp,16
 687              		.cfi_def_cfa 8, 0
  74:src/syscall_cpp.cpp ****     return ::getc();
 688              		.loc 2 74 5
 689              		.loc 2 74 18 is_stmt 0
 690 030c 97000000 		call	_Z4getcv@plt
 690      E7800000 
 691              	.LVL42:
  75:src/syscall_cpp.cpp **** }
 692              		.loc 2 75 1
 693 0314 83308100 		ld	ra,8(sp)
 694              		.cfi_restore 1
 695 0318 03340100 		ld	s0,0(sp)
 696              		.cfi_restore 8
 697              		.cfi_def_cfa 2, 16
 698 031c 13010101 		addi	sp,sp,16
 699              		.cfi_def_cfa_offset 0
 700 0320 67800000 		jr	ra
 701              		.cfi_endproc
 702              	.LFE29:
 704              		.align	2
 705              		.globl	_ZN7Console4putcEc
 707              	_ZN7Console4putcEc:
 708              	.LFB30:
  76:src/syscall_cpp.cpp **** 
  77:src/syscall_cpp.cpp **** void Console::putc(char c) {
 709              		.loc 2 77 28 is_stmt 1
 710              		.cfi_startproc
 711              	.LVL43:
 712 0324 130101FF 		addi	sp,sp,-16
 713              		.cfi_def_cfa_offset 16
 714 0328 23341100 		sd	ra,8(sp)
 715 032c 23308100 		sd	s0,0(sp)
 716              		.cfi_offset 1, -8
 717              		.cfi_offset 8, -16
 718 0330 13040101 		addi	s0,sp,16
 719              		.cfi_def_cfa 8, 0
  78:src/syscall_cpp.cpp ****     ::putc(c);
 720              		.loc 2 78 5
 721              		.loc 2 78 11 is_stmt 0
 722 0334 97000000 		call	_Z4putcc@plt
 722      E7800000 
GAS LISTING /tmp/ccspGmmj.s 			page 16


 723              	.LVL44:
  79:src/syscall_cpp.cpp **** }
 724              		.loc 2 79 1
 725 033c 83308100 		ld	ra,8(sp)
 726              		.cfi_restore 1
 727 0340 03340100 		ld	s0,0(sp)
 728              		.cfi_restore 8
 729              		.cfi_def_cfa 2, 16
 730 0344 13010101 		addi	sp,sp,16
 731              		.cfi_def_cfa_offset 0
 732 0348 67800000 		jr	ra
 733              		.cfi_endproc
 734              	.LFE30:
 736              		.weak	_ZTV6Thread
 737              		.section	.data.rel.ro.local._ZTV6Thread,"awG",@progbits,_ZTV6Thread,comdat
 738              		.align	3
 741              	_ZTV6Thread:
 742 0000 00000000 		.dword	0
 742      00000000 
 743 0008 00000000 		.dword	0
 743      00000000 
 744 0010 00000000 		.dword	_ZN6ThreadD1Ev
 744      00000000 
 745 0018 00000000 		.dword	_ZN6ThreadD0Ev
 745      00000000 
 746 0020 00000000 		.dword	_ZN6Thread3runEv
 746      00000000 
 747              		.weak	_ZTV9Semaphore
 748              		.section	.data.rel.ro.local._ZTV9Semaphore,"awG",@progbits,_ZTV9Semaphore,comdat
 749              		.align	3
 752              	_ZTV9Semaphore:
 753 0000 00000000 		.dword	0
 753      00000000 
 754 0008 00000000 		.dword	0
 754      00000000 
 755 0010 00000000 		.dword	_ZN9SemaphoreD1Ev
 755      00000000 
 756 0018 00000000 		.dword	_ZN9SemaphoreD0Ev
 756      00000000 
 757              		.text
 758              	.Letext0:
 759              		.file 3 "src/../h/../lib/hw.h"
 760              		.file 4 "src/../h/syscall_c.h"
 3215              		.align	3
 3218              	DW.ref.__gxx_personality_v0:
 3219 0000 00000000 		.dword	__gxx_personality_v0
 3219      00000000 
 3220              		.ident	"GCC: (Ubuntu 9.4.0-1ubuntu1~20.04) 9.4.0"
 3221              		.section	.note.GNU-stack,"",@progbits
GAS LISTING /tmp/ccspGmmj.s 			page 17

